ccopy_reg
_reconstructor
p0
(cFWCore.ParameterSet.Config
Process
p1
c__builtin__
object
p2
Ntp3
Rp4
(dp5
V_Process__name
p6
VANALYSIS
p7
sV_Process__filters
p8
(dp9
sV_Process__producers
p10
(dp11
VrandomEngineStateProducer
p12
g0
(cFWCore.ParameterSet.Modules
EDProducer
p13
g2
Ntp14
Rp15
(dp16
V_TypedParameterizable__type
p17
VRandomEngineStateProducer
p18
sV_Parameterizable__parameterNames
p19
(lp20
sV_isFrozen
p21
I00
sV_Parameterizable__validator
p22
NsV_isModified
p23
I00
sV_filename
p24
V/cvmfs/cms-ib.cern.ch/sw/x86_64/week1/el8_amd64_gcc12/cms/cmssw/CMSSW_14_1_X_2024-06-09-2300/src/IOMC/RandomEngine/python/IOMC_cff.py
p25
sV_lineNumber
p26
I172
sV_Labelable__label
p27
g12
sbsVcalotowermaker
p28
g0
(g13
g2
Ntp29
Rp30
(dp31
g17
VCaloTowersCreator
p32
sg19
(lp33
VEBSumThreshold
p34
aVHF2Weight
p35
aVEBWeight
p36
aVhfInput
p37
aVEESumThreshold
p38
aVHOThreshold0
p39
aVHOThresholdPlus1
p40
aVHOThresholdMinus1
p41
aVHOThresholdPlus2
p42
aVHOThresholdMinus2
p43
aVHBGrid
p44
aVHBThreshold1
p45
aVHBThreshold2
p46
aVHBThreshold
p47
aVEEWeights
p48
aVHF1Threshold
p49
aVHF2Weights
p50
aVHOWeights
p51
aVEEGrid
p52
aVHEDWeight
p53
aVEEWeight
p54
aVUseHO
p55
aVHBWeights
p56
aVHESWeight
p57
aVHF1Weight
p58
aVHF2Grid
p59
aVHEDWeights
p60
aVHF1Grid
p61
aVEBWeights
p62
aVHOWeight
p63
aVEBThreshold
p64
aVEEThreshold
p65
aVUseEtEBTreshold
p66
aVUseSymEBTreshold
p67
aVUseEtEETreshold
p68
aVUseSymEETreshold
p69
aVhbheInput
p70
aVHcalThreshold
p71
aVHF2Threshold
p72
aVHESThreshold1
p73
aVHESThreshold
p74
aVHF1Weights
p75
aVhoInput
p76
aVHESGrid
p77
aVHESWeights
p78
aVHEDThreshold1
p79
aVHEDThreshold
p80
aVEcutTower
p81
aVHEDGrid
p82
aVecalInputs
p83
aVHBWeight
p84
aVHOGrid
p85
aVEBGrid
p86
aVMomConstrMethod
p87
aVMomHBDepth
p88
aVMomHEDepth
p89
aVMomEBDepth
p90
aVMomEEDepth
p91
aVHcalAcceptSeverityLevel
p92
aVEcalRecHitSeveritiesToBeExcluded
p93
aVUseHcalRecoveredHits
p94
aVUseEcalRecoveredHits
p95
aVUseRejectedHitsOnly
p96
aVHcalAcceptSeverityLevelForRejectedHit
p97
aVEcalSeveritiesToBeUsedInBadTowers
p98
aVUseRejectedRecoveredHcalHits
p99
aVUseRejectedRecoveredEcalHits
p100
aVmissingHcalRescaleFactorForEcal
p101
aVAllowMissingInputs
p102
aVHcalPhase
p103
aVusePFThresholdsFromDB
p104
asg21
I00
sg22
Nsg34
g0
(cFWCore.ParameterSet.Types
double
p105
g2
Ntp106
Rp107
(dp108
g21
I00
sV_ParameterTypeBase__isTracked
p109
I01
sg23
I00
sV_value
p110
F0.2
sbsg23
I01
sg35
g0
(g105
g2
Ntp111
Rp112
(dp113
g21
I00
sg109
I01
sg23
I00
sg110
F1.0
sbsg36
g0
(g105
g2
Ntp114
Rp115
(dp116
g21
I00
sg109
I01
sg23
I00
sg110
F1.0
sbsg37
g0
(cFWCore.ParameterSet.Types
InputTag
p117
g2
Ntp118
Rp119
(dp120
g21
I00
sg109
I01
sg23
I00
sV_InputTag__moduleLabel
p121
Vhfreco
p122
sV_InputTag__productInstance
p123
V
p124
sV_InputTag__processName
p125
g124
sbsg38
g0
(g105
g2
Ntp126
Rp127
(dp128
g21
I00
sg109
I01
sg23
I00
sg110
F0.45
sbsg39
g0
(g105
g2
Ntp129
Rp130
(dp131
g21
I00
sg109
I01
sg23
I00
sg110
F1.1
sbsg40
g0
(g105
g2
Ntp132
Rp133
(dp134
g21
I00
sg109
I01
sg23
I00
sg110
F3.5
sbsg41
g0
(g105
g2
Ntp135
Rp136
(dp137
g21
I00
sg109
I01
sg23
I00
sg110
F3.5
sbsg42
g0
(g105
g2
Ntp138
Rp139
(dp140
g21
I00
sg109
I01
sg23
I00
sg110
F3.5
sbsg43
g0
(g105
g2
Ntp141
Rp142
(dp143
g21
I00
sg109
I01
sg23
I00
sg110
F3.5
sbsg44
g0
(cFWCore.ParameterSet.Types
vdouble
p144
c__builtin__
list
p145
(lp146
F-1.0
aF1.0
aF10.0
aF100.0
aF1000.0
atp147
Rp148
(dp149
g21
I00
sg109
I01
sg23
I00
sbsg45
g0
(g105
g2
Ntp150
Rp151
(dp152
g21
I00
sg109
I01
sg23
I01
sg110
F0.1
sbsg46
g0
(g105
g2
Ntp153
Rp154
(dp155
g21
I00
sg109
I01
sg23
I01
sg110
F0.2
sbsg47
g0
(g105
g2
Ntp156
Rp157
(dp158
g21
I00
sg109
I01
sg23
I01
sg110
F0.3
sbsg48
g0
(g144
g145
(lp159
F1.0
aF1.0
aF1.0
aF1.0
aF1.0
atp160
Rp161
(dp162
g21
I00
sg109
I01
sg23
I00
sbsg49
g0
(g105
g2
Ntp163
Rp164
(dp165
g21
I00
sg109
I01
sg23
I00
sg110
F0.5
sbsg50
g0
(g144
g145
(lp166
F1.0
aF1.0
aF1.0
aF1.0
aF1.0
atp167
Rp168
(dp169
g21
I00
sg109
I01
sg23
I00
sbsg51
g0
(g144
g145
(lp170
F1.0
aF1.0
aF1.0
aF1.0
aF1.0
atp171
Rp172
(dp173
g21
I00
sg109
I01
sg23
I00
sbsg52
g0
(g144
g145
(lp174
F-1.0
aF1.0
aF10.0
aF100.0
aF1000.0
atp175
Rp176
(dp177
g21
I00
sg109
I01
sg23
I00
sbsg53
g0
(g105
g2
Ntp178
Rp179
(dp180
g21
I00
sg109
I01
sg23
I00
sg110
F1.0
sbsg54
g0
(g105
g2
Ntp181
Rp182
(dp183
g21
I00
sg109
I01
sg23
I00
sg110
F1.0
sbsg55
g0
(cFWCore.ParameterSet.Types
bool
p184
g2
Ntp185
Rp186
(dp187
g21
I00
sg109
I01
sg23
I00
sg110
I01
sbsg56
g0
(g144
g145
(lp188
F1.0
aF1.0
aF1.0
aF1.0
aF1.0
atp189
Rp190
(dp191
g21
I00
sg109
I01
sg23
I00
sbsg57
g0
(g105
g2
Ntp192
Rp193
(dp194
g21
I00
sg109
I01
sg23
I00
sg110
F1.0
sbsg58
g0
(g105
g2
Ntp195
Rp196
(dp197
g21
I00
sg109
I01
sg23
I00
sg110
F1.0
sbsg59
g0
(g144
g145
(lp198
F-1.0
aF1.0
aF10.0
aF100.0
aF1000.0
atp199
Rp200
(dp201
g21
I00
sg109
I01
sg23
I00
sbsg60
g0
(g144
g145
(lp202
F1.0
aF1.0
aF1.0
aF1.0
aF1.0
atp203
Rp204
(dp205
g21
I00
sg109
I01
sg23
I00
sbsg61
g0
(g144
g145
(lp206
F-1.0
aF1.0
aF10.0
aF100.0
aF1000.0
atp207
Rp208
(dp209
g21
I00
sg109
I01
sg23
I00
sbsg62
g0
(g144
g145
(lp210
F1.0
aF1.0
aF1.0
aF1.0
aF1.0
atp211
Rp212
(dp213
g21
I00
sg109
I01
sg23
I00
sbsg63
g0
(g105
g2
Ntp214
Rp215
(dp216
g21
I00
sg109
I01
sg23
I00
sg110
F1.0
sbsg64
g0
(g105
g2
Ntp217
Rp218
(dp219
g21
I00
sg109
I01
sg23
I00
sg110
F0.07
sbsg65
g0
(g105
g2
Ntp220
Rp221
(dp222
g21
I00
sg109
I01
sg23
I00
sg110
F0.3
sbsg66
g0
(g184
g2
Ntp223
Rp224
(dp225
g21
I00
sg109
I01
sg23
I00
sg110
I00
sbsg67
g0
(g184
g2
Ntp226
Rp227
(dp228
g21
I00
sg109
I01
sg23
I00
sg110
I01
sbsg68
g0
(g184
g2
Ntp229
Rp230
(dp231
g21
I00
sg109
I01
sg23
I00
sg110
I00
sbsg69
g0
(g184
g2
Ntp232
Rp233
(dp234
g21
I00
sg109
I01
sg23
I00
sg110
I01
sbsg70
g0
(g117
g2
Ntp235
Rp236
(dp237
g21
I00
sg109
I01
sg23
I00
sg121
Vhbhereco
p238
sg123
g124
sg125
g124
sbsg71
g0
(g105
g2
Ntp239
Rp240
(dp241
g21
I00
sg109
I01
sg23
I00
sg110
F-1000.0
sbsg72
g0
(g105
g2
Ntp242
Rp243
(dp244
g21
I00
sg109
I01
sg23
I00
sg110
F0.85
sbsg73
g0
(g105
g2
Ntp245
Rp246
(dp247
g21
I00
sg109
I01
sg23
I01
sg110
F0.1
sbsg74
g0
(g105
g2
Ntp248
Rp249
(dp250
g21
I00
sg109
I01
sg23
I01
sg110
F0.2
sbsg75
g0
(g144
g145
(lp251
F1.0
aF1.0
aF1.0
aF1.0
aF1.0
atp252
Rp253
(dp254
g21
I00
sg109
I01
sg23
I00
sbsg76
g0
(g117
g2
Ntp255
Rp256
(dp257
g21
I00
sg109
I01
sg23
I00
sg121
Vhoreco
p258
sg123
g124
sg125
g124
sbsg77
g0
(g144
g145
(lp259
F-1.0
aF1.0
aF10.0
aF100.0
aF1000.0
atp260
Rp261
(dp262
g21
I00
sg109
I01
sg23
I00
sbsg78
g0
(g144
g145
(lp263
F1.0
aF1.0
aF1.0
aF1.0
aF1.0
atp264
Rp265
(dp266
g21
I00
sg109
I01
sg23
I00
sbsg79
g0
(g105
g2
Ntp267
Rp268
(dp269
g21
I00
sg109
I01
sg23
I01
sg110
F0.1
sbsg80
g0
(g105
g2
Ntp270
Rp271
(dp272
g21
I00
sg109
I01
sg23
I01
sg110
F0.2
sbsg81
g0
(g105
g2
Ntp273
Rp274
(dp275
g21
I00
sg109
I01
sg23
I00
sg110
F-1000.0
sbsg82
g0
(g144
g145
(lp276
F-1.0
aF1.0
aF10.0
aF100.0
aF1000.0
atp277
Rp278
(dp279
g21
I00
sg109
I01
sg23
I00
sbsg83
g0
(cFWCore.ParameterSet.Types
VInputTag
p280
g145
(lp281
g0
(g117
g2
Ntp282
Rp283
(dp284
g21
I00
sg109
I01
sg23
I00
sg121
VecalRecHit
p285
sg123
VEcalRecHitsEB
p286
sg125
g124
sbag0
(g117
g2
Ntp287
Rp288
(dp289
g21
I00
sg109
I01
sg23
I00
sg121
g285
sg123
VEcalRecHitsEE
p290
sg125
g124
sbatp291
Rp292
(dp293
g21
I00
sg109
I01
sg23
I00
sbsg84
g0
(g105
g2
Ntp294
Rp295
(dp296
g21
I00
sg109
I01
sg23
I00
sg110
F1.0
sbsg85
g0
(g144
g145
(lp297
F-1.0
aF1.0
aF10.0
aF100.0
aF1000.0
atp298
Rp299
(dp300
g21
I00
sg109
I01
sg23
I00
sbsg86
g0
(g144
g145
(lp301
F-1.0
aF1.0
aF10.0
aF100.0
aF1000.0
atp302
Rp303
(dp304
g21
I00
sg109
I01
sg23
I00
sbsg87
g0
(cFWCore.ParameterSet.Types
int32
p305
g2
Ntp306
Rp307
(dp308
g21
I00
sg109
I01
sg23
I00
sg110
I1
sbsg88
g0
(g105
g2
Ntp309
Rp310
(dp311
g21
I00
sg109
I01
sg23
I00
sg110
F0.2
sbsg89
g0
(g105
g2
Ntp312
Rp313
(dp314
g21
I00
sg109
I01
sg23
I00
sg110
F0.4
sbsg90
g0
(g105
g2
Ntp315
Rp316
(dp317
g21
I00
sg109
I01
sg23
I00
sg110
F0.3
sbsg91
g0
(g105
g2
Ntp318
Rp319
(dp320
g21
I00
sg109
I01
sg23
I00
sg110
F0.0
sbsg92
g0
(cFWCore.ParameterSet.Types
uint32
p321
g2
Ntp322
Rp323
(dp324
g21
I00
sg109
I01
sg23
I00
sg110
I9
sbsg93
g0
(cFWCore.ParameterSet.Types
vstring
p325
g145
(lp326
VkTime
p327
aVkWeird
p328
aVkBad
p329
atp330
Rp331
(dp332
g21
I00
sg109
I01
sg23
I00
sV_nPerLine
p333
I1
sbsg94
g0
(g184
g2
Ntp334
Rp335
(dp336
g21
I00
sg109
I01
sg23
I00
sg110
I01
sbsg95
g0
(g184
g2
Ntp337
Rp338
(dp339
g21
I00
sg109
I01
sg23
I00
sg110
I00
sbsg96
g0
(g184
g2
Ntp340
Rp341
(dp342
g21
I00
sg109
I01
sg23
I00
sg110
I00
sbsg97
g0
(g321
g2
Ntp343
Rp344
(dp345
g21
I00
sg109
I01
sg23
I00
sg110
I9999
sbsg98
g0
(g325
g145
(lp346
tp347
Rp348
(dp349
g21
I00
sg109
I01
sg23
I00
sg333
I1
sbsg99
g0
(g184
g2
Ntp350
Rp351
(dp352
g21
I00
sg109
I01
sg23
I00
sg110
I01
sbsg100
g0
(g184
g2
Ntp353
Rp354
(dp355
g21
I00
sg109
I01
sg23
I00
sg110
I00
sbsg101
g0
(g105
g2
Ntp356
Rp357
(dp358
g21
I00
sg109
I01
sg23
I00
sg110
I0
sbsg102
g0
(g184
g2
Ntp359
Rp360
(dp361
g21
I00
sg109
I01
sg23
I00
sg110
I00
sbsg103
g0
(g305
g2
Ntp362
Rp363
(dp364
g21
I00
sg109
I01
sg23
I01
sg110
I1
sbsg104
g0
(g184
g2
Ntp365
Rp366
(dp367
g21
I00
sg109
I01
sg23
I01
sg110
I01
sbsg24
V/cvmfs/cms-ib.cern.ch/sw/x86_64/week1/el8_amd64_gcc12/cms/cmssw/CMSSW_14_1_X_2024-06-09-2300/src/RecoLocalCalo/CaloTowersCreator/python/calotowermaker_cfi.py
p368
sg26
I3
sg27
g28
sbsVtowerMakerAll
p369
g0
(g13
g2
Ntp370
Rp371
(dp372
g17
g32
sg19
(lp373
g34
ag35
ag36
ag37
ag38
ag39
ag40
ag41
ag42
ag43
ag44
ag45
ag46
ag47
ag48
ag49
ag50
ag51
ag52
ag53
ag54
ag55
ag56
ag57
ag58
ag59
ag60
ag61
ag62
ag63
ag64
ag65
ag66
ag67
ag68
ag69
ag70
ag71
ag72
ag73
ag74
ag75
ag76
ag77
ag78
ag79
ag80
ag81
ag82
ag83
ag84
ag85
ag86
ag87
ag88
ag89
ag90
ag91
ag92
ag93
ag94
ag95
ag96
ag97
ag98
ag99
ag100
ag101
ag102
ag103
ag104
asg21
I00
sg22
Nsg34
g0
(g105
g2
Ntp374
Rp375
(dp376
g21
I00
sg109
I01
sg23
I00
sg110
F0.2
sbsg23
I01
sg35
g0
(g105
g2
Ntp377
Rp378
(dp379
g21
I00
sg109
I01
sg23
I00
sg110
F1.0
sbsg36
g0
(g105
g2
Ntp380
Rp381
(dp382
g21
I00
sg109
I01
sg23
I00
sg110
F1.0
sbsg37
g0
(g117
g2
Ntp383
Rp384
(dp385
g21
I00
sg109
I01
sg23
I00
sg121
Vnone
p386
sg123
g124
sg125
g124
sbsg38
g0
(g105
g2
Ntp387
Rp388
(dp389
g21
I00
sg109
I01
sg23
I00
sg110
F0.45
sbsg39
g0
(g105
g2
Ntp390
Rp391
(dp392
g21
I00
sg109
I01
sg23
I00
sg110
F1.1
sbsg40
g0
(g105
g2
Ntp393
Rp394
(dp395
g21
I00
sg109
I01
sg23
I00
sg110
F3.5
sbsg41
g0
(g105
g2
Ntp396
Rp397
(dp398
g21
I00
sg109
I01
sg23
I00
sg110
F3.5
sbsg42
g0
(g105
g2
Ntp399
Rp400
(dp401
g21
I00
sg109
I01
sg23
I00
sg110
F3.5
sbsg43
g0
(g105
g2
Ntp402
Rp403
(dp404
g21
I00
sg109
I01
sg23
I00
sg110
F3.5
sbsg44
g0
(g144
g145
(lp405
F-1.0
aF1.0
aF10.0
aF100.0
aF1000.0
atp406
Rp407
(dp408
g21
I00
sg109
I01
sg23
I00
sbsg45
g0
(g105
g2
Ntp409
Rp410
(dp411
g21
I00
sg109
I01
sg23
I01
sg110
F0.1
sbsg46
g0
(g105
g2
Ntp412
Rp413
(dp414
g21
I00
sg109
I01
sg23
I01
sg110
F0.2
sbsg47
g0
(g105
g2
Ntp415
Rp416
(dp417
g21
I00
sg109
I01
sg23
I01
sg110
F0.3
sbsg48
g0
(g144
g145
(lp418
F1.0
aF1.0
aF1.0
aF1.0
aF1.0
atp419
Rp420
(dp421
g21
I00
sg109
I01
sg23
I00
sbsg49
g0
(g105
g2
Ntp422
Rp423
(dp424
g21
I00
sg109
I01
sg23
I00
sg110
F0.5
sbsg50
g0
(g144
g145
(lp425
F1.0
aF1.0
aF1.0
aF1.0
aF1.0
atp426
Rp427
(dp428
g21
I00
sg109
I01
sg23
I00
sbsg51
g0
(g144
g145
(lp429
F1.0
aF1.0
aF1.0
aF1.0
aF1.0
atp430
Rp431
(dp432
g21
I00
sg109
I01
sg23
I00
sbsg52
g0
(g144
g145
(lp433
F-1.0
aF1.0
aF10.0
aF100.0
aF1000.0
atp434
Rp435
(dp436
g21
I00
sg109
I01
sg23
I00
sbsg53
g0
(g105
g2
Ntp437
Rp438
(dp439
g21
I00
sg109
I01
sg23
I00
sg110
F1.0
sbsg54
g0
(g105
g2
Ntp440
Rp441
(dp442
g21
I00
sg109
I01
sg23
I00
sg110
F1.0
sbsg55
g0
(g184
g2
Ntp443
Rp444
(dp445
g21
I00
sg109
I01
sg23
I00
sg110
I01
sbsg56
g0
(g144
g145
(lp446
F1.0
aF1.0
aF1.0
aF1.0
aF1.0
atp447
Rp448
(dp449
g21
I00
sg109
I01
sg23
I00
sbsg57
g0
(g105
g2
Ntp450
Rp451
(dp452
g21
I00
sg109
I01
sg23
I00
sg110
F1.0
sbsg58
g0
(g105
g2
Ntp453
Rp454
(dp455
g21
I00
sg109
I01
sg23
I00
sg110
F1.0
sbsg59
g0
(g144
g145
(lp456
F-1.0
aF1.0
aF10.0
aF100.0
aF1000.0
atp457
Rp458
(dp459
g21
I00
sg109
I01
sg23
I00
sbsg60
g0
(g144
g145
(lp460
F1.0
aF1.0
aF1.0
aF1.0
aF1.0
atp461
Rp462
(dp463
g21
I00
sg109
I01
sg23
I00
sbsg61
g0
(g144
g145
(lp464
F-1.0
aF1.0
aF10.0
aF100.0
aF1000.0
atp465
Rp466
(dp467
g21
I00
sg109
I01
sg23
I00
sbsg62
g0
(g144
g145
(lp468
F1.0
aF1.0
aF1.0
aF1.0
aF1.0
atp469
Rp470
(dp471
g21
I00
sg109
I01
sg23
I00
sbsg63
g0
(g105
g2
Ntp472
Rp473
(dp474
g21
I00
sg109
I01
sg23
I00
sg110
F1.0
sbsg64
g0
(g105
g2
Ntp475
Rp476
(dp477
g21
I00
sg109
I01
sg23
I00
sg110
F0.07
sbsg65
g0
(g105
g2
Ntp478
Rp479
(dp480
g21
I00
sg109
I01
sg23
I00
sg110
F0.3
sbsg66
g0
(g184
g2
Ntp481
Rp482
(dp483
g21
I00
sg109
I01
sg23
I00
sg110
I00
sbsg67
g0
(g184
g2
Ntp484
Rp485
(dp486
g21
I00
sg109
I01
sg23
I00
sg110
I01
sbsg68
g0
(g184
g2
Ntp487
Rp488
(dp489
g21
I00
sg109
I01
sg23
I00
sg110
I00
sbsg69
g0
(g184
g2
Ntp490
Rp491
(dp492
g21
I00
sg109
I01
sg23
I00
sg110
I01
sbsg70
g0
(g117
g2
Ntp493
Rp494
(dp495
g21
I00
sg109
I01
sg23
I00
sg121
g238
sg123
g124
sg125
g124
sbsg71
g0
(g105
g2
Ntp496
Rp497
(dp498
g21
I00
sg109
I01
sg23
I00
sg110
F-1000.0
sbsg72
g0
(g105
g2
Ntp499
Rp500
(dp501
g21
I00
sg109
I01
sg23
I00
sg110
F0.85
sbsg73
g0
(g105
g2
Ntp502
Rp503
(dp504
g21
I00
sg109
I01
sg23
I01
sg110
F0.1
sbsg74
g0
(g105
g2
Ntp505
Rp506
(dp507
g21
I00
sg109
I01
sg23
I01
sg110
F0.2
sbsg75
g0
(g144
g145
(lp508
F1.0
aF1.0
aF1.0
aF1.0
aF1.0
atp509
Rp510
(dp511
g21
I00
sg109
I01
sg23
I00
sbsg76
g0
(g117
g2
Ntp512
Rp513
(dp514
g21
I00
sg109
I01
sg23
I00
sg121
g386
sg123
g124
sg125
g124
sbsg77
g0
(g144
g145
(lp515
F-1.0
aF1.0
aF10.0
aF100.0
aF1000.0
atp516
Rp517
(dp518
g21
I00
sg109
I01
sg23
I00
sbsg78
g0
(g144
g145
(lp519
F1.0
aF1.0
aF1.0
aF1.0
aF1.0
atp520
Rp521
(dp522
g21
I00
sg109
I01
sg23
I00
sbsg79
g0
(g105
g2
Ntp523
Rp524
(dp525
g21
I00
sg109
I01
sg23
I01
sg110
F0.1
sbsg80
g0
(g105
g2
Ntp526
Rp527
(dp528
g21
I00
sg109
I01
sg23
I01
sg110
F0.2
sbsg81
g0
(g105
g2
Ntp529
Rp530
(dp531
g21
I00
sg109
I01
sg23
I00
sg110
F-1000.0
sbsg82
g0
(g144
g145
(lp532
F-1.0
aF1.0
aF10.0
aF100.0
aF1000.0
atp533
Rp534
(dp535
g21
I00
sg109
I01
sg23
I00
sbsg83
g0
(g280
g145
(lp536
g0
(g117
g2
Ntp537
Rp538
(dp539
g21
I00
sg109
I01
sg23
I00
sg121
g285
sg123
g286
sg125
g124
sbag0
(g117
g2
Ntp540
Rp541
(dp542
g21
I00
sg109
I01
sg23
I00
sg121
g285
sg123
g290
sg125
g124
sbatp543
Rp544
(dp545
g21
I00
sg109
I01
sg23
I00
sbsg84
g0
(g105
g2
Ntp546
Rp547
(dp548
g21
I00
sg109
I01
sg23
I00
sg110
F1.0
sbsg85
g0
(g144
g145
(lp549
F-1.0
aF1.0
aF10.0
aF100.0
aF1000.0
atp550
Rp551
(dp552
g21
I00
sg109
I01
sg23
I00
sbsg86
g0
(g144
g145
(lp553
F-1.0
aF1.0
aF10.0
aF100.0
aF1000.0
atp554
Rp555
(dp556
g21
I00
sg109
I01
sg23
I00
sbsg87
g0
(g305
g2
Ntp557
Rp558
(dp559
g21
I00
sg109
I01
sg23
I00
sg110
I1
sbsg88
g0
(g105
g2
Ntp560
Rp561
(dp562
g21
I00
sg109
I01
sg23
I00
sg110
F0.2
sbsg89
g0
(g105
g2
Ntp563
Rp564
(dp565
g21
I00
sg109
I01
sg23
I00
sg110
F0.4
sbsg90
g0
(g105
g2
Ntp566
Rp567
(dp568
g21
I00
sg109
I01
sg23
I00
sg110
F0.3
sbsg91
g0
(g105
g2
Ntp569
Rp570
(dp571
g21
I00
sg109
I01
sg23
I00
sg110
F0.0
sbsg92
g0
(g321
g2
Ntp572
Rp573
(dp574
g21
I00
sg109
I01
sg23
I00
sg110
I9
sbsg93
g0
(g325
g145
(lp575
g327
ag328
ag329
atp576
Rp577
(dp578
g21
I00
sg109
I01
sg23
I00
sg333
I1
sbsg94
g0
(g184
g2
Ntp579
Rp580
(dp581
g21
I00
sg109
I01
sg23
I00
sg110
I01
sbsg95
g0
(g184
g2
Ntp582
Rp583
(dp584
g21
I00
sg109
I01
sg23
I00
sg110
I00
sbsg96
g0
(g184
g2
Ntp585
Rp586
(dp587
g21
I00
sg109
I01
sg23
I00
sg110
I00
sbsg97
g0
(g321
g2
Ntp588
Rp589
(dp590
g21
I00
sg109
I01
sg23
I00
sg110
I9999
sbsg98
g0
(g325
g145
(lp591
tp592
Rp593
(dp594
g21
I00
sg109
I01
sg23
I00
sg333
I1
sbsg99
g0
(g184
g2
Ntp595
Rp596
(dp597
g21
I00
sg109
I01
sg23
I00
sg110
I01
sbsg100
g0
(g184
g2
Ntp598
Rp599
(dp600
g21
I00
sg109
I01
sg23
I00
sg110
I00
sbsg101
g0
(g105
g2
Ntp601
Rp602
(dp603
g21
I00
sg109
I01
sg23
I00
sg110
I0
sbsg102
g0
(g184
g2
Ntp604
Rp605
(dp606
g21
I00
sg109
I01
sg23
I01
sg110
I01
sbsg103
g0
(g305
g2
Ntp607
Rp608
(dp609
g21
I00
sg109
I01
sg23
I01
sg110
I1
sbsg104
g0
(g184
g2
Ntp610
Rp611
(dp612
g21
I00
sg109
I01
sg23
I01
sg110
I01
sbsg24
V/afs/cern.ch/user/s/smagedov/CMSSW_14_1_X_2024-06-09-2300/src/isoTrack/isoTrackAlCaCommissioning_cfg.py
p613
sg26
I27
sg27
g369
sbssV_Process__switchproducers
p614
(dp615
sV_Process__source
p616
g0
(cFWCore.ParameterSet.Modules
Source
p617
g2
Ntp618
Rp619
(dp620
g17
VPoolSource
p621
sg19
(lp622
VfileNames
p623
asg21
I00
sg22
Nsg623
g0
(g325
g145
(lp624
V/store/data/Run2024B/Commissioning/ALCARECO/HcalCalIsoTrk-PromptReco-v1/000/379/075/00000/2a67bdd1-76ce-4be0-bf72-41584e8f23a7.root
p625
atp626
Rp627
(dp628
g21
I00
sg109
I00
sg23
I00
sg333
I1
sbsg23
I00
sg24
V/cvmfs/cms-ib.cern.ch/sw/x86_64/week1/el8_amd64_gcc12/cms/cmssw/CMSSW_14_1_X_2024-06-09-2300/src/FWCore/ParameterSet/python/Modules.py
p629
sg26
I195
sbsV_Process__looper
p630
NsV_Process__subProcesses
p631
(lp632
sV_Process__schedule
p633
NsV_Process__analyzers
p634
(dp635
VhcalIsoTrkAnalyzer
p636
g0
(cFWCore.ParameterSet.Modules
EDAnalyzer
p637
g2
Ntp638
Rp639
(dp640
g17
VHcalIsoTrkAnalyzer
p641
sg19
(lp642
Vtriggers
p643
aVprocessName
p644
aVl1Filter
p645
aVl2Filter
p646
aVl3Filter
p647
aVtrackQuality
p648
aVminTrackPt
p649
aVmaxDxyPV
p650
aVmaxDzPV
p651
aVmaxChi2
p652
aVmaxDpOverP
p653
aVminOuterHit
p654
aVminLayerCrossed
p655
aVmaxInMiss
p656
aVmaxOutMiss
p657
aVminimumTrackP
p658
aVconeRadius
p659
aVconeRadiusMIP
p660
aVconeRadiusMIP2
p661
aVconeRadiusMIP3
p662
aVconeRadiusMIP4
p663
aVconeRadiusMIP5
p664
aVmaximumEcalEnergy
p665
aVmaxTrackP
p666
aVslopeTrackP
p667
aVisolationEnergyTight
p668
aVisolationEnergyLoose
p669
aVEBHitEnergyThreshold
p670
aVEEHitEnergyThreshold0
p671
aVEEHitEnergyThreshold1
p672
aVEEHitEnergyThreshold2
p673
aVEEHitEnergyThreshold3
p674
aVEEHitEnergyThresholdLow
p675
aVEEHitEnergyThresholdHigh
p676
aVmomentumLow
p677
aVmomentumHigh
p678
aVprescaleLow
p679
aVprescaleHigh
p680
aVlabelTriggerEvent
p681
aVlabelTriggerResult
p682
aVlabelTrack
p683
aVlabelVertex
p684
aVlabelEBRecHit
p685
aVlabelEERecHit
p686
aVlabelHBHERecHit
p687
aVlabelBeamSpot
p688
aVlabelCaloTower
p689
aVlabelMuon
p690
aValgInputTag
p691
aVextInputTag
p692
aVmoduleName
p693
aVproducerName
p694
aVuseRaw
p695
aVignoreTriggers
p696
aVuseL1Trigger
p697
aVhcalScale
p698
aVdataType
p699
aVunCorrect
p700
aVgetCharge
p701
aVcollapseDepth
p702
aVl1TrigName
p703
aVoutMode
p704
aVoldID
p705
aVnewDepth
p706
aVhep17
p707
aVdebugEvents
p708
aVusePFThreshold
p709
aVmightGet
p710
asg21
I00
sg22
Nsg643
g0
(g325
g145
(lp711
tp712
Rp713
(dp714
g21
I00
sg109
I01
sg23
I01
sg333
I1
sbsg23
I01
sg644
g0
(cFWCore.ParameterSet.Types
string
p715
g2
Ntp716
Rp717
(dp718
g21
I00
sg109
I01
sg23
I00
sg110
VHLT
p719
sbsg645
g0
(g715
g2
Ntp720
Rp721
(dp722
g21
I00
sg109
I01
sg23
I00
sg110
g124
sbsg646
g0
(g715
g2
Ntp723
Rp724
(dp725
g21
I00
sg109
I01
sg23
I00
sg110
VL2Filter
p726
sbsg647
g0
(g715
g2
Ntp727
Rp728
(dp729
g21
I00
sg109
I01
sg23
I00
sg110
VFilter
p730
sbsg648
g0
(g715
g2
Ntp731
Rp732
(dp733
g21
I00
sg109
I01
sg23
I00
sg110
VhighPurity
p734
sbsg649
g0
(g105
g2
Ntp735
Rp736
(dp737
g21
I00
sg109
I01
sg23
I00
sg110
I1
sbsg650
g0
(g105
g2
Ntp738
Rp739
(dp740
g21
I00
sg109
I01
sg23
I00
sg110
F0.02
sbsg651
g0
(g105
g2
Ntp741
Rp742
(dp743
g21
I00
sg109
I01
sg23
I00
sg110
F0.02
sbsg652
g0
(g105
g2
Ntp744
Rp745
(dp746
g21
I00
sg109
I01
sg23
I00
sg110
I5
sbsg653
g0
(g105
g2
Ntp747
Rp748
(dp749
g21
I00
sg109
I01
sg23
I00
sg110
F0.1
sbsg654
g0
(g305
g2
Ntp750
Rp751
(dp752
g21
I00
sg109
I01
sg23
I00
sg110
I4
sbsg655
g0
(g305
g2
Ntp753
Rp754
(dp755
g21
I00
sg109
I01
sg23
I00
sg110
I8
sbsg656
g0
(g305
g2
Ntp756
Rp757
(dp758
g21
I00
sg109
I01
sg23
I00
sg110
I0
sbsg657
g0
(g305
g2
Ntp759
Rp760
(dp761
g21
I00
sg109
I01
sg23
I00
sg110
I0
sbsg658
g0
(g105
g2
Ntp762
Rp763
(dp764
g21
I00
sg109
I01
sg23
I00
sg110
I10
sbsg659
g0
(g105
g2
Ntp765
Rp766
(dp767
g21
I00
sg109
I01
sg23
I00
sg110
F34.98
sbsg660
g0
(g105
g2
Ntp768
Rp769
(dp770
g21
I00
sg109
I01
sg23
I00
sg110
I14
sbsg661
g0
(g105
g2
Ntp771
Rp772
(dp773
g21
I00
sg109
I01
sg23
I00
sg110
I18
sbsg662
g0
(g105
g2
Ntp774
Rp775
(dp776
g21
I00
sg109
I01
sg23
I00
sg110
I20
sbsg663
g0
(g105
g2
Ntp777
Rp778
(dp779
g21
I00
sg109
I01
sg23
I00
sg110
I22
sbsg664
g0
(g105
g2
Ntp780
Rp781
(dp782
g21
I00
sg109
I01
sg23
I00
sg110
I24
sbsg665
g0
(g105
g2
Ntp783
Rp784
(dp785
g21
I00
sg109
I01
sg23
I00
sg110
I2
sbsg666
g0
(g105
g2
Ntp786
Rp787
(dp788
g21
I00
sg109
I01
sg23
I00
sg110
I8
sbsg667
g0
(g105
g2
Ntp789
Rp790
(dp791
g21
I00
sg109
I01
sg23
I00
sg110
F0.05090504066
sbsg668
g0
(g105
g2
Ntp792
Rp793
(dp794
g21
I00
sg109
I01
sg23
I00
sg110
I2
sbsg669
g0
(g105
g2
Ntp795
Rp796
(dp797
g21
I00
sg109
I01
sg23
I00
sg110
I10
sbsg670
g0
(g105
g2
Ntp798
Rp799
(dp800
g21
I00
sg109
I01
sg23
I00
sg110
F0.18
sbsg671
g0
(g105
g2
Ntp801
Rp802
(dp803
g21
I00
sg109
I01
sg23
I00
sg110
F-206.074
sbsg672
g0
(g105
g2
Ntp804
Rp805
(dp806
g21
I00
sg109
I01
sg23
I00
sg110
F357.671
sbsg673
g0
(g105
g2
Ntp807
Rp808
(dp809
g21
I00
sg109
I01
sg23
I00
sg110
F-204.978
sbsg674
g0
(g105
g2
Ntp810
Rp811
(dp812
g21
I00
sg109
I01
sg23
I00
sg110
F39.033
sbsg675
g0
(g105
g2
Ntp813
Rp814
(dp815
g21
I00
sg109
I01
sg23
I00
sg110
F1.25
sbsg676
g0
(g105
g2
Ntp816
Rp817
(dp818
g21
I00
sg109
I01
sg23
I00
sg110
F10.0
sbsg677
g0
(g105
g2
Ntp819
Rp820
(dp821
g21
I00
sg109
I01
sg23
I00
sg110
I40
sbsg678
g0
(g105
g2
Ntp822
Rp823
(dp824
g21
I00
sg109
I01
sg23
I00
sg110
I60
sbsg679
g0
(g305
g2
Ntp825
Rp826
(dp827
g21
I00
sg109
I01
sg23
I00
sg110
I1
sbsg680
g0
(g305
g2
Ntp828
Rp829
(dp830
g21
I00
sg109
I01
sg23
I00
sg110
I1
sbsg681
g0
(g117
g2
Ntp831
Rp832
(dp833
g21
I00
sg109
I01
sg23
I00
sg121
VhltTriggerSummaryAOD
p834
sg123
g124
sg125
g719
sbsg682
g0
(g117
g2
Ntp835
Rp836
(dp837
g21
I00
sg109
I01
sg23
I00
sg121
VTriggerResults
p838
sg123
g124
sg125
g719
sbsg683
g0
(g715
g2
Ntp839
Rp840
(dp841
g21
I00
sg109
I01
sg23
I00
sg110
VgeneralTracks
p842
sbsg684
g0
(g715
g2
Ntp843
Rp844
(dp845
g21
I00
sg109
I01
sg23
I00
sg110
VofflinePrimaryVertices
p846
sbsg685
g0
(g715
g2
Ntp847
Rp848
(dp849
g21
I00
sg109
I01
sg23
I00
sg110
g286
sbsg686
g0
(g715
g2
Ntp850
Rp851
(dp852
g21
I00
sg109
I01
sg23
I00
sg110
g290
sbsg687
g0
(g715
g2
Ntp853
Rp854
(dp855
g21
I00
sg109
I01
sg23
I00
sg110
g238
sbsg688
g0
(g715
g2
Ntp856
Rp857
(dp858
g21
I00
sg109
I01
sg23
I00
sg110
VofflineBeamSpot
p859
sbsg689
g0
(g715
g2
Ntp860
Rp861
(dp862
g21
I00
sg109
I01
sg23
I00
sg110
VtowerMaker
p863
sbsg690
g0
(g715
g2
Ntp864
Rp865
(dp866
g21
I00
sg109
I01
sg23
I00
sg110
Vmuons
p867
sbsg691
g0
(g117
g2
Ntp868
Rp869
(dp870
g21
I00
sg109
I01
sg23
I00
sg121
VgtStage2Digis
p871
sg123
g124
sg125
g124
sbsg692
g0
(g117
g2
Ntp872
Rp873
(dp874
g21
I00
sg109
I01
sg23
I00
sg121
g871
sg123
g124
sg125
g124
sbsg693
g0
(g715
g2
Ntp875
Rp876
(dp877
g21
I00
sg109
I00
sg23
I00
sg110
g124
sbsg694
g0
(g715
g2
Ntp878
Rp879
(dp880
g21
I00
sg109
I00
sg23
I00
sg110
g124
sbsg695
g0
(g305
g2
Ntp881
Rp882
(dp883
g21
I00
sg109
I00
sg23
I00
sg110
I0
sbsg696
g0
(g184
g2
Ntp884
Rp885
(dp886
g21
I00
sg109
I00
sg23
I01
sg110
I01
sbsg697
g0
(g184
g2
Ntp887
Rp888
(dp889
g21
I00
sg109
I00
sg23
I00
sg110
I00
sbsg698
g0
(g105
g2
Ntp890
Rp891
(dp892
g21
I00
sg109
I00
sg23
I00
sg110
I1
sbsg699
g0
(g305
g2
Ntp893
Rp894
(dp895
g21
I00
sg109
I00
sg23
I00
sg110
I0
sbsg700
g0
(g184
g2
Ntp896
Rp897
(dp898
g21
I00
sg109
I00
sg23
I00
sg110
I00
sbsg701
g0
(g184
g2
Ntp899
Rp900
(dp901
g21
I00
sg109
I00
sg23
I00
sg110
I00
sbsg702
g0
(g184
g2
Ntp902
Rp903
(dp904
g21
I00
sg109
I00
sg23
I00
sg110
I00
sbsg703
g0
(g715
g2
Ntp905
Rp906
(dp907
g21
I00
sg109
I00
sg23
I00
sg110
VL1_SingleJet60
p908
sbsg704
g0
(g305
g2
Ntp909
Rp910
(dp911
g21
I00
sg109
I00
sg23
I00
sg110
I11
sbsg705
g0
(cFWCore.ParameterSet.Types
vint32
p912
g145
(lp913
tp914
Rp915
(dp916
g21
I00
sg109
I00
sg23
I00
sbsg706
g0
(g912
g145
(lp917
tp918
Rp919
(dp920
g21
I00
sg109
I00
sg23
I00
sbsg707
g0
(g184
g2
Ntp921
Rp922
(dp923
g21
I00
sg109
I00
sg23
I00
sg110
I00
sbsg708
g0
(g912
g145
(lp924
tp925
Rp926
(dp927
g21
I00
sg109
I01
sg23
I00
sbsg709
g0
(g184
g2
Ntp928
Rp929
(dp930
g21
I00
sg109
I01
sg23
I00
sg110
I01
sbsg710
g0
(cFWCore.ParameterSet.Types
_OptionalParameter
p931
g2
Ntp932
Rp933
(dp934
g21
I00
sg109
I00
sg23
I00
sV_ProxyParameter__type
p935
g325
sV_ProxyParameter__value
p936
Nsbsg24
V/cvmfs/cms-ib.cern.ch/sw/x86_64/week1/el8_amd64_gcc12/cms/cmssw/CMSSW_14_1_X_2024-06-09-2300/cfipython/el8_amd64_gcc12/Calibration/HcalCalibAlgos/HcalIsoTrkAnalyzer.py
p937
sg26
I4
sg27
g636
sbssV_Process__outputmodules
p938
(dp939
sV_Process__paths
p940
g0
(cFWCore.ParameterSet.DictTypes
SortedKeysDict
p941
c__builtin__
dict
p942
(dp943
Vp
p944
g0
(cFWCore.ParameterSet.SequenceTypes
Path
p945
g2
Ntp946
Rp947
(dp948
g21
I00
sV_seq
p949
g0
(cFWCore.ParameterSet.SequenceTypes
_SequenceCollection
p950
g2
Ntp951
Rp952
(dp953
V_collection
p954
(lp955
g639
asbsg23
I00
sV_tasks
p956
g0
(cFWCore.ParameterSet.OrderedSet
OrderedSet
p957
g2
Ntp958
Rp959
(dp960
Vend
p961
(lp962
Nag962
ag962
asVmap
p963
(dp964
sbsg27
g944
sbstp965
Rp966
(dp967
Vlist
p968
(lp969
g944
asbsV_Process__endpaths
p970
g0
(g941
g942
(dp971
tp972
Rp973
(dp974
g968
(lp975
sbsV_Process__finalpaths
p976
g0
(g941
g942
(dp977
tp978
Rp979
(dp980
g968
(lp981
sbsV_Process__sequences
p982
(dp983
sV_Process__tasks
p984
(dp985
sV_Process__conditionaltasks
p986
(dp987
sV_Process__services
p988
(dp989
VMessageLogger
p990
g0
(cFWCore.ParameterSet.Modules
Service
p991
g2
Ntp992
Rp993
(dp994
g17
g990
sg19
(lp995
VsuppressWarning
p996
aVsuppressFwkInfo
p997
aVsuppressInfo
p998
aVsuppressDebug
p999
aVdebugModules
p1000
aVcout
p1001
aVdefault
p1002
aVcerr
p1003
aVfiles
p1004
aVHcalIsoTrackX
p1005
aVHcalIsoTrack
p1006
asg21
I00
sg22
g0
(g931
g2
Ntp1007
Rp1008
(dp1009
g21
I00
sg109
I00
sg23
I00
sg935
g0
(cFWCore.ParameterSet.Types
_PSetTemplate
p1010
g2
Ntp1011
Rp1012
(dp1013
V_pset
p1014
g0
(cFWCore.ParameterSet.Types
PSet
p1015
g2
Ntp1016
Rp1017
(dp1018
g21
I00
sg109
I01
sg23
I00
sg19
(lp1019
VreportEvery
p1020
aVlimit
p1021
aVtimespan
p1022
asg22
Nsg1020
g0
(g305
g2
Ntp1023
Rp1024
(dp1025
g21
I00
sg109
I00
sg23
I00
sg110
I1
sbsg1021
g0
(g931
g2
Ntp1026
Rp1027
(dp1028
g21
I00
sg109
I00
sg23
I00
sg935
g305
sg936
Nsbsg1022
g0
(g931
g2
Ntp1029
Rp1030
(dp1031
g21
I00
sg109
I00
sg23
I00
sg935
g305
sg936
Nsbsbsbsg936
Nsbsg996
g0
(g325
g145
(lp1032
tp1033
Rp1034
(dp1035
g21
I00
sg109
I00
sg23
I00
sg333
I1
sbsg23
I01
sg997
g0
(g325
g145
(lp1036
tp1037
Rp1038
(dp1039
g21
I00
sg109
I00
sg23
I00
sg333
I1
sbsg998
g0
(g325
g145
(lp1040
tp1041
Rp1042
(dp1043
g21
I00
sg109
I00
sg23
I00
sg333
I1
sbsg999
g0
(g325
g145
(lp1044
tp1045
Rp1046
(dp1047
g21
I00
sg109
I00
sg23
I00
sg333
I1
sbsg1000
g0
(g325
g145
(lp1048
tp1049
Rp1050
(dp1051
g21
I00
sg109
I00
sg23
I00
sg333
I1
sbsg1001
g0
(g1015
g2
Ntp1052
Rp1053
(dp1054
g21
I00
sg109
I00
sg23
I00
sg19
(lp1055
VnoLineBreaks
p1056
aVnoTimeStamps
p1057
aVlineLength
p1058
aVthreshold
p1059
aVstatisticsThreshold
p1060
aVenableStatistics
p1061
aVresetStatistics
p1062
aVenable
p1063
asg22
g1008
sg1056
g0
(g931
g2
Ntp1064
Rp1065
(dp1066
g21
I00
sg109
I00
sg23
I00
sg935
g184
sg936
Nsbsg1057
g0
(g931
g2
Ntp1067
Rp1068
(dp1069
g21
I00
sg109
I00
sg23
I00
sg935
g184
sg936
Nsbsg1058
g0
(g931
g2
Ntp1070
Rp1071
(dp1072
g21
I00
sg109
I00
sg23
I00
sg935
g305
sg936
Nsbsg1059
g0
(g931
g2
Ntp1073
Rp1074
(dp1075
g21
I00
sg109
I00
sg23
I00
sg935
g715
sg936
Nsbsg1060
g0
(g931
g2
Ntp1076
Rp1077
(dp1078
g21
I00
sg109
I00
sg23
I00
sg935
g715
sg936
Nsbsg1061
g0
(g184
g2
Ntp1079
Rp1080
(dp1081
g21
I00
sg109
I00
sg23
I00
sg110
I00
sbsg1062
g0
(g184
g2
Ntp1082
Rp1083
(dp1084
g21
I00
sg109
I00
sg23
I00
sg110
I00
sbsg1063
g0
(g184
g2
Ntp1085
Rp1086
(dp1087
g21
I00
sg109
I00
sg23
I00
sg110
I00
sbsbsg1002
g0
(g1015
g2
Ntp1088
Rp1089
(dp1090
g21
I00
sg109
I00
sg23
I00
sg19
(lp1091
g1020
ag1021
ag1022
ag1056
ag1057
ag1058
ag1059
ag1060
asg22
g1008
sg1020
g0
(g305
g2
Ntp1092
Rp1093
(dp1094
g21
I00
sg109
I00
sg23
I00
sg110
I1
sbsg1021
g0
(g931
g2
Ntp1095
Rp1096
(dp1097
g21
I00
sg109
I00
sg23
I00
sg935
g305
sg936
Nsbsg1022
g0
(g931
g2
Ntp1098
Rp1099
(dp1100
g21
I00
sg109
I00
sg23
I00
sg935
g305
sg936
Nsbsg1056
g0
(g184
g2
Ntp1101
Rp1102
(dp1103
g21
I00
sg109
I00
sg23
I00
sg110
I00
sbsg1057
g0
(g184
g2
Ntp1104
Rp1105
(dp1106
g21
I00
sg109
I00
sg23
I00
sg110
I00
sbsg1058
g0
(g305
g2
Ntp1107
Rp1108
(dp1109
g21
I00
sg109
I00
sg23
I00
sg110
I80
sbsg1059
g0
(g715
g2
Ntp1110
Rp1111
(dp1112
g21
I00
sg109
I00
sg23
I00
sg110
VINFO
p1113
sbsg1060
g0
(g715
g2
Ntp1114
Rp1115
(dp1116
g21
I00
sg109
I00
sg23
I00
sg110
g1113
sbsbsg1003
g0
(g1015
g2
Ntp1117
Rp1118
(dp1119
g21
I00
sg109
I00
sg23
I00
sg19
(lp1120
g1056
ag1057
ag1058
ag1059
ag1060
ag1063
ag1061
ag1062
ag1113
aVFwkReport
p1121
ag1002
aVRoot_NoDictionary
p1122
aVFwkSummary
p1123
asg22
g1008
sg1056
g0
(g931
g2
Ntp1124
Rp1125
(dp1126
g21
I00
sg109
I00
sg23
I00
sg935
g184
sg936
Nsbsg1057
g0
(g184
g2
Ntp1127
Rp1128
(dp1129
g21
I00
sg109
I00
sg23
I00
sg110
I00
sbsg1058
g0
(g931
g2
Ntp1130
Rp1131
(dp1132
g21
I00
sg109
I00
sg23
I00
sg935
g305
sg936
Nsbsg1059
g0
(g715
g2
Ntp1133
Rp1134
(dp1135
g21
I00
sg109
I00
sg23
I00
sg110
g1113
sbsg1060
g0
(g715
g2
Ntp1136
Rp1137
(dp1138
g21
I00
sg109
I00
sg23
I00
sg110
VWARNING
p1139
sbsg1063
g0
(g184
g2
Ntp1140
Rp1141
(dp1142
g21
I00
sg109
I00
sg23
I00
sg110
I01
sbsg1061
g0
(g184
g2
Ntp1143
Rp1144
(dp1145
g21
I00
sg109
I00
sg23
I00
sg110
I00
sbsg1062
g0
(g184
g2
Ntp1146
Rp1147
(dp1148
g21
I00
sg109
I00
sg23
I00
sg110
I00
sbsg1113
g0
(g1015
g2
Ntp1149
Rp1150
(dp1151
g21
I00
sg109
I00
sg23
I00
sg19
(lp1152
g1021
asg22
Nsg1021
g0
(g305
g2
Ntp1153
Rp1154
(dp1155
g21
I00
sg109
I00
sg23
I00
sg110
I0
sbsbsg1121
g0
(g1015
g2
Ntp1156
Rp1157
(dp1158
g21
I00
sg109
I00
sg23
I01
sg19
(lp1159
g1020
ag1021
asg22
Nsg1020
g0
(g305
g2
Ntp1160
Rp1161
(dp1162
g21
I00
sg109
I00
sg23
I00
sg110
I1000
sbsg1021
g0
(g305
g2
Ntp1163
Rp1164
(dp1165
g21
I00
sg109
I00
sg23
I00
sg110
I10000000
sbsbsg1002
g0
(g1015
g2
Ntp1166
Rp1167
(dp1168
g21
I00
sg109
I00
sg23
I00
sg19
(lp1169
g1021
asg22
Nsg1021
g0
(g305
g2
Ntp1170
Rp1171
(dp1172
g21
I00
sg109
I00
sg23
I00
sg110
I10000000
sbsbsg1122
g0
(g1015
g2
Ntp1173
Rp1174
(dp1175
g21
I00
sg109
I00
sg23
I00
sg19
(lp1176
g1021
asg22
Nsg1021
g0
(g305
g2
Ntp1177
Rp1178
(dp1179
g21
I00
sg109
I00
sg23
I00
sg110
I0
sbsbsg1123
g0
(g1015
g2
Ntp1180
Rp1181
(dp1182
g21
I00
sg109
I00
sg23
I00
sg19
(lp1183
g1020
ag1021
asg22
Nsg1020
g0
(g305
g2
Ntp1184
Rp1185
(dp1186
g21
I00
sg109
I00
sg23
I00
sg110
I1
sbsg1021
g0
(g305
g2
Ntp1187
Rp1188
(dp1189
g21
I00
sg109
I00
sg23
I00
sg110
I10000000
sbsbsbsg1004
g0
(g1015
g2
Ntp1190
Rp1191
(dp1192
g21
I00
sg109
I00
sg23
I00
sg19
(lp1193
sg22
g0
(g931
g2
Ntp1194
Rp1195
(dp1196
g21
I00
sg109
I00
sg23
I00
sg935
g0
(g1010
g2
Ntp1197
Rp1198
(dp1199
g1014
g0
(g1015
g2
Ntp1200
Rp1201
(dp1202
g21
I00
sg109
I01
sg23
I00
sg19
(lp1203
g1056
ag1057
ag1058
ag1059
ag1060
ag1061
ag1062
aVfilename
p1204
aVextension
p1205
aVoutput
p1206
asg22
g1008
sg1056
g0
(g931
g2
Ntp1207
Rp1208
(dp1209
g21
I00
sg109
I00
sg23
I00
sg935
g184
sg936
Nsbsg1057
g0
(g931
g2
Ntp1210
Rp1211
(dp1212
g21
I00
sg109
I00
sg23
I00
sg935
g184
sg936
Nsbsg1058
g0
(g931
g2
Ntp1213
Rp1214
(dp1215
g21
I00
sg109
I00
sg23
I00
sg935
g305
sg936
Nsbsg1059
g0
(g931
g2
Ntp1216
Rp1217
(dp1218
g21
I00
sg109
I00
sg23
I00
sg935
g715
sg936
Nsbsg1060
g0
(g931
g2
Ntp1219
Rp1220
(dp1221
g21
I00
sg109
I00
sg23
I00
sg935
g715
sg936
Nsbsg1061
g0
(g184
g2
Ntp1222
Rp1223
(dp1224
g21
I00
sg109
I00
sg23
I00
sg110
I00
sbsg1062
g0
(g184
g2
Ntp1225
Rp1226
(dp1227
g21
I00
sg109
I00
sg23
I00
sg110
I00
sbsg1204
g0
(g931
g2
Ntp1228
Rp1229
(dp1230
g21
I00
sg109
I00
sg23
I00
sg935
g715
sg936
Nsbsg1205
g0
(g931
g2
Ntp1231
Rp1232
(dp1233
g21
I00
sg109
I00
sg23
I00
sg935
g715
sg936
Nsbsg1206
g0
(g931
g2
Ntp1234
Rp1235
(dp1236
g21
I00
sg109
I00
sg23
I00
sg935
g715
sg936
Nsbsbsbsg936
Nsbsbsg24
g629
sg26
I13
sV_inProcess
p1237
I00
sg1005
g0
(g1015
g2
Ntp1238
Rp1239
(dp1240
g21
I00
sg109
I00
sg23
I00
sg19
(lp1241
g1020
ag1021
ag1022
asg22
Nsg1020
g0
(g305
g2
Ntp1242
Rp1243
(dp1244
g21
I00
sg109
I00
sg23
I00
sg110
I1
sbsg1021
g0
(g931
g2
Ntp1245
Rp1246
(dp1247
g21
I00
sg109
I00
sg23
I00
sg935
g305
sg936
Nsbsg1022
g0
(g931
g2
Ntp1248
Rp1249
(dp1250
g21
I00
sg109
I00
sg23
I00
sg935
g305
sg936
Nsbsbsg1006
g0
(g1015
g2
Ntp1251
Rp1252
(dp1253
g21
I00
sg109
I00
sg23
I00
sg19
(lp1254
g1020
ag1021
ag1022
asg22
Nsg1020
g0
(g305
g2
Ntp1255
Rp1256
(dp1257
g21
I00
sg109
I00
sg23
I00
sg110
I1
sbsg1021
g0
(g931
g2
Ntp1258
Rp1259
(dp1260
g21
I00
sg109
I00
sg23
I00
sg935
g305
sg936
Nsbsg1022
g0
(g931
g2
Ntp1261
Rp1262
(dp1263
g21
I00
sg109
I00
sg23
I00
sg935
g305
sg936
NsbsbsbsVDQMStore
p1264
g0
(g991
g2
Ntp1265
Rp1266
(dp1267
g17
g1264
sg19
(lp1268
Vverbose
p1269
aVsaveByLumi
p1270
aVMEsToSave
p1271
aVtrackME
p1272
aVassertLegacySafe
p1273
aVenableMultiThread
p1274
aVonlineMode
p1275
asg21
I00
sg22
Nsg1269
g0
(g305
g2
Ntp1276
Rp1277
(dp1278
g21
I00
sg109
I00
sg23
I00
sg110
I0
sbsg23
I00
sg1270
g0
(g184
g2
Ntp1279
Rp1280
(dp1281
g21
I00
sg109
I00
sg23
I00
sg110
I00
sbsg1271
g0
(g325
g145
(lp1282
VHcal/DigiTask/Occupancy/depth/depth1
p1283
aVHcal/DigiTask/Occupancy/depth/depth2
p1284
aVHcal/DigiTask/Occupancy/depth/depth3
p1285
aVHcal/DigiTask/Occupancy/depth/depth4
p1286
aVHcal/DigiTask/Occupancy/depth/depth5
p1287
aVHcal/DigiTask/Occupancy/depth/depth6
p1288
aVHcal/DigiTask/Occupancy/depth/depth7
p1289
aVHcal/DigiTask/Occupancy/depth/depthHO
p1290
aVHcal/DigiTask/OccupancyCut/depth/depth1
p1291
aVHcal/DigiTask/OccupancyCut/depth/depth2
p1292
aVHcal/DigiTask/OccupancyCut/depth/depth3
p1293
aVHcal/DigiTask/OccupancyCut/depth/depth4
p1294
aVHcal/DigiTask/OccupancyCut/depth/depth5
p1295
aVHcal/DigiTask/OccupancyCut/depth/depth6
p1296
aVHcal/DigiTask/OccupancyCut/depth/depth7
p1297
aVHcal/DigiTask/OccupancyCut/depth/depthHO
p1298
aVEcalBarrel/EBOccupancyTask/EBOT digi occupancy
p1299
aVEcalEndcap/EEOccupancyTask/EEOT digi occupancy EE -
p1300
aVEcalEndcap/EEOccupancyTask/EEOT digi occupancy EE +
p1301
aVEcalBarrel/EBOccupancyTask/EBOT DCC entries
p1302
aVEcalEndcap/EEOccupancyTask/EEOT DCC entries
p1303
aVEcal/EventInfo/processedEvents
p1304
aVPixelPhase1/Tracks/charge_PXBarrel
p1305
aVPixelPhase1/Tracks/charge_PXForward
p1306
aVPixelPhase1/Tracks/PXBarrel/charge_PXLayer_1
p1307
aVPixelPhase1/Tracks/PXBarrel/charge_PXLayer_2
p1308
aVPixelPhase1/Tracks/PXBarrel/charge_PXLayer_3
p1309
aVPixelPhase1/Tracks/PXBarrel/charge_PXLayer_4
p1310
aVPixelPhase1/Tracks/PXForward/charge_PXDisk_+1
p1311
aVPixelPhase1/Tracks/PXForward/charge_PXDisk_+2
p1312
aVPixelPhase1/Tracks/PXForward/charge_PXDisk_+3
p1313
aVPixelPhase1/Tracks/PXForward/charge_PXDisk_-1
p1314
aVPixelPhase1/Tracks/PXForward/charge_PXDisk_-2
p1315
aVPixelPhase1/Tracks/PXForward/charge_PXDisk_-3
p1316
aVPixelPhase1/Tracks/PXBarrel/size_PXLayer_1
p1317
aVPixelPhase1/Tracks/PXBarrel/size_PXLayer_2
p1318
aVPixelPhase1/Tracks/PXBarrel/size_PXLayer_3
p1319
aVPixelPhase1/Tracks/PXBarrel/size_PXLayer_4
p1320
aVPixelPhase1/Tracks/PXForward/size_PXDisk_+1
p1321
aVPixelPhase1/Tracks/PXForward/size_PXDisk_+2
p1322
aVPixelPhase1/Tracks/PXForward/size_PXDisk_+3
p1323
aVPixelPhase1/Tracks/PXForward/size_PXDisk_-1
p1324
aVPixelPhase1/Tracks/PXForward/size_PXDisk_-2
p1325
aVPixelPhase1/Tracks/PXForward/size_PXDisk_-3
p1326
aVCSC/CSCOfflineMonitor/recHits/hRHGlobalm1
p1327
aVCSC/CSCOfflineMonitor/recHits/hRHGlobalm2
p1328
aVCSC/CSCOfflineMonitor/recHits/hRHGlobalm3
p1329
aVCSC/CSCOfflineMonitor/recHits/hRHGlobalm4
p1330
aVCSC/CSCOfflineMonitor/recHits/hRHGlobalp1
p1331
aVCSC/CSCOfflineMonitor/recHits/hRHGlobalp2
p1332
aVCSC/CSCOfflineMonitor/recHits/hRHGlobalp3
p1333
aVCSC/CSCOfflineMonitor/recHits/hRHGlobalp4
p1334
aVHLT/Vertexing/hltPixelVertices/hltPixelVertices/goodvtxNbr
p1335
aVHLT/Tracking/ValidationWRTOffline/hltMergedWrtHighPurityPV/mon_eta
p1336
aVHLT/Tracking/ValidationWRTOffline/hltMergedWrtHighPurityPV/mon_hits
p1337
aVHLT/Tracking/ValidationWRTOffline/hltMergedWrtHighPurityPV/mon_phi
p1338
aVHLT/Tracking/ValidationWRTOffline/hltMergedWrtHighPurityPV/mon_pt
p1339
aVHLT/Tracking/ValidationWRTOffline/hltMergedWrtHighPurityPV/mon_unMatched_eta
p1340
aVHLT/Tracking/ValidationWRTOffline/hltMergedWrtHighPurityPV/mon_unMatched_hits
p1341
aVHLT/Tracking/ValidationWRTOffline/hltMergedWrtHighPurityPV/mon_unMatched_phi
p1342
aVHLT/Tracking/ValidationWRTOffline/hltMergedWrtHighPurityPV/mon_unMatched_pt
p1343
aVHLT/Tracking/ValidationWRTOffline/hltMergedWrtHighPurityPV/ref_eta
p1344
aVHLT/Tracking/ValidationWRTOffline/hltMergedWrtHighPurityPV/ref_hits
p1345
aVHLT/Tracking/ValidationWRTOffline/hltMergedWrtHighPurityPV/ref_matched_eta
p1346
aVHLT/Tracking/ValidationWRTOffline/hltMergedWrtHighPurityPV/ref_matched_hits
p1347
aVHLT/Tracking/ValidationWRTOffline/hltMergedWrtHighPurityPV/ref_matched_phi
p1348
aVHLT/Tracking/ValidationWRTOffline/hltMergedWrtHighPurityPV/ref_matched_pt
p1349
aVHLT/Tracking/ValidationWRTOffline/hltMergedWrtHighPurityPV/ref_phi
p1350
aVHLT/Tracking/ValidationWRTOffline/hltMergedWrtHighPurityPV/ref_pt
p1351
aVHLT/Tracking/pixelTracks/GeneralProperties/Chi2Prob_GenTk
p1352
aVHLT/Tracking/pixelTracks/GeneralProperties/Chi2oNDFVsEta_ImpactPoint_GenTk
p1353
aVHLT/Tracking/pixelTracks/GeneralProperties/DeltaZToPVZoom_GenTk
p1354
aVHLT/Tracking/pixelTracks/GeneralProperties/DistanceOfClosestApproachToPVVsPhi_GenTk
p1355
aVHLT/Tracking/pixelTracks/GeneralProperties/DistanceOfClosestApproachToPVZoom_GenTk
p1356
aVHLT/Tracking/pixelTracks/GeneralProperties/NumberOfTracks_GenTk
p1357
aVHLT/Tracking/tracks/GeneralProperties/Chi2Prob_GenTk
p1358
aVHLT/Tracking/tracks/GeneralProperties/Chi2oNDFVsEta_ImpactPoint_GenTk
p1359
aVHLT/Tracking/tracks/GeneralProperties/DeltaZToPVZoom_GenTk
p1360
aVHLT/Tracking/tracks/GeneralProperties/DistanceOfClosestApproachToPVVsPhi_GenTk
p1361
aVHLT/Tracking/tracks/GeneralProperties/DistanceOfClosestApproachToPVZoom_GenTk
p1362
aVHLT/Tracking/tracks/GeneralProperties/NumberOfTracks_GenTk
p1363
aVHLT/Tracking/tracks/LUMIanalysis/NumberEventsVsLUMI
p1364
aVHLT/Tracking/tracks/PUmonitoring/NumberEventsVsGoodPVtx
p1365
aVPixelPhase1/Tracks/num_clusters_ontrack_PXBarrel
p1366
aVPixelPhase1/Tracks/num_clusters_ontrack_PXForward
p1367
aVPixelPhase1/Tracks/clusterposition_zphi_ontrack
p1368
aVPixelPhase1/Tracks/PXBarrel/clusterposition_zphi_ontrack_PXLayer_1
p1369
aVPixelPhase1/Tracks/PXBarrel/clusterposition_zphi_ontrack_PXLayer_2
p1370
aVPixelPhase1/Tracks/PXBarrel/clusterposition_zphi_ontrack_PXLayer_3
p1371
aVPixelPhase1/Tracks/PXBarrel/clusterposition_zphi_ontrack_PXLayer_4
p1372
aVPixelPhase1/Tracks/PXForward/clusterposition_xy_ontrack_PXDisk_+1
p1373
aVPixelPhase1/Tracks/PXForward/clusterposition_xy_ontrack_PXDisk_+2
p1374
aVPixelPhase1/Tracks/PXForward/clusterposition_xy_ontrack_PXDisk_+3
p1375
aVPixelPhase1/Tracks/PXForward/clusterposition_xy_ontrack_PXDisk_-1
p1376
aVPixelPhase1/Tracks/PXForward/clusterposition_xy_ontrack_PXDisk_-2
p1377
aVPixelPhase1/Tracks/PXForward/clusterposition_xy_ontrack_PXDisk_-3
p1378
aVPixelPhase1/Phase1_MechanicalView/PXBarrel/digi_occupancy_per_SignedModuleCoord_per_SignedLadderCoord_PXLayer_1
p1379
aVPixelPhase1/Phase1_MechanicalView/PXBarrel/digi_occupancy_per_SignedModuleCoord_per_SignedLadderCoord_PXLayer_2
p1380
aVPixelPhase1/Phase1_MechanicalView/PXBarrel/digi_occupancy_per_SignedModuleCoord_per_SignedLadderCoord_PXLayer_3
p1381
aVPixelPhase1/Phase1_MechanicalView/PXBarrel/digi_occupancy_per_SignedModuleCoord_per_SignedLadderCoord_PXLayer_4
p1382
aVPixelPhase1/Phase1_MechanicalView/PXForward/digi_occupancy_per_SignedDiskCoord_per_SignedBladePanelCoord_PXRing_1
p1383
aVPixelPhase1/Phase1_MechanicalView/PXForward/digi_occupancy_per_SignedDiskCoord_per_SignedBladePanelCoord_PXRing_2
p1384
aVPixelPhase1/Phase1_MechanicalView/PXBarrel/clusters_per_SignedModuleCoord_per_SignedLadderCoord_PXLayer_1
p1385
aVPixelPhase1/Phase1_MechanicalView/PXBarrel/clusters_per_SignedModuleCoord_per_SignedLadderCoord_PXLayer_2
p1386
aVPixelPhase1/Phase1_MechanicalView/PXBarrel/clusters_per_SignedModuleCoord_per_SignedLadderCoord_PXLayer_3
p1387
aVPixelPhase1/Phase1_MechanicalView/PXBarrel/clusters_per_SignedModuleCoord_per_SignedLadderCoord_PXLayer_4
p1388
aVPixelPhase1/Phase1_MechanicalView/PXForward/clusters_per_SignedDiskCoord_per_SignedBladePanelCoord_PXRing_1
p1389
aVPixelPhase1/Phase1_MechanicalView/PXForward/clusters_per_SignedDiskCoord_per_SignedBladePanelCoord_PXRing_2
p1390
aVSiStrip/MechanicalView/TEC/PLUS/wheel_1/NormalizedHitResiduals_TEC__wheel__1
p1391
aVSiStrip/MechanicalView/TEC/PLUS/wheel_2/NormalizedHitResiduals_TEC__wheel__2
p1392
aVSiStrip/MechanicalView/TEC/PLUS/wheel_3/NormalizedHitResiduals_TEC__wheel__3
p1393
aVSiStrip/MechanicalView/TEC/PLUS/wheel_4/NormalizedHitResiduals_TEC__wheel__4
p1394
aVSiStrip/MechanicalView/TEC/PLUS/wheel_5/NormalizedHitResiduals_TEC__wheel__5
p1395
aVSiStrip/MechanicalView/TEC/PLUS/wheel_6/NormalizedHitResiduals_TEC__wheel__6
p1396
aVSiStrip/MechanicalView/TEC/PLUS/wheel_7/NormalizedHitResiduals_TEC__wheel__7
p1397
aVSiStrip/MechanicalView/TEC/PLUS/wheel_8/NormalizedHitResiduals_TEC__wheel__8
p1398
aVSiStrip/MechanicalView/TEC/PLUS/wheel_9/NormalizedHitResiduals_TEC__wheel__9
p1399
aVSiStrip/MechanicalView/TEC/MINUS/wheel_1/NormalizedHitResiduals_TEC__wheel__1
p1400
aVSiStrip/MechanicalView/TEC/MINUS/wheel_2/NormalizedHitResiduals_TEC__wheel__2
p1401
aVSiStrip/MechanicalView/TEC/MINUS/wheel_3/NormalizedHitResiduals_TEC__wheel__3
p1402
aVSiStrip/MechanicalView/TEC/MINUS/wheel_4/NormalizedHitResiduals_TEC__wheel__4
p1403
aVSiStrip/MechanicalView/TEC/MINUS/wheel_5/NormalizedHitResiduals_TEC__wheel__5
p1404
aVSiStrip/MechanicalView/TEC/MINUS/wheel_6/NormalizedHitResiduals_TEC__wheel__6
p1405
aVSiStrip/MechanicalView/TEC/MINUS/wheel_7/NormalizedHitResiduals_TEC__wheel__7
p1406
aVSiStrip/MechanicalView/TEC/MINUS/wheel_8/NormalizedHitResiduals_TEC__wheel__8
p1407
aVSiStrip/MechanicalView/TEC/MINUS/wheel_9/NormalizedHitResiduals_TEC__wheel__9
p1408
aVSiStrip/MechanicalView/TEC/PLUS/wheel_1/Summary_ClusterStoNCorr__OnTrack__TEC__PLUS__wheel__1
p1409
aVSiStrip/MechanicalView/TEC/PLUS/wheel_2/Summary_ClusterStoNCorr__OnTrack__TEC__PLUS__wheel__2
p1410
aVSiStrip/MechanicalView/TEC/PLUS/wheel_3/Summary_ClusterStoNCorr__OnTrack__TEC__PLUS__wheel__3
p1411
aVSiStrip/MechanicalView/TEC/PLUS/wheel_4/Summary_ClusterStoNCorr__OnTrack__TEC__PLUS__wheel__4
p1412
aVSiStrip/MechanicalView/TEC/PLUS/wheel_5/Summary_ClusterStoNCorr__OnTrack__TEC__PLUS__wheel__5
p1413
aVSiStrip/MechanicalView/TEC/PLUS/wheel_6/Summary_ClusterStoNCorr__OnTrack__TEC__PLUS__wheel__6
p1414
aVSiStrip/MechanicalView/TEC/PLUS/wheel_7/Summary_ClusterStoNCorr__OnTrack__TEC__PLUS__wheel__7
p1415
aVSiStrip/MechanicalView/TEC/PLUS/wheel_8/Summary_ClusterStoNCorr__OnTrack__TEC__PLUS__wheel__8
p1416
aVSiStrip/MechanicalView/TEC/PLUS/wheel_9/Summary_ClusterStoNCorr__OnTrack__TEC__PLUS__wheel__9
p1417
aVSiStrip/MechanicalView/TEC/MINUS/wheel_1/Summary_ClusterStoNCorr__OnTrack__TEC__MINUS__wheel__1
p1418
aVSiStrip/MechanicalView/TEC/MINUS/wheel_2/Summary_ClusterStoNCorr__OnTrack__TEC__MINUS__wheel__2
p1419
aVSiStrip/MechanicalView/TEC/MINUS/wheel_3/Summary_ClusterStoNCorr__OnTrack__TEC__MINUS__wheel__3
p1420
aVSiStrip/MechanicalView/TEC/MINUS/wheel_4/Summary_ClusterStoNCorr__OnTrack__TEC__MINUS__wheel__4
p1421
aVSiStrip/MechanicalView/TEC/MINUS/wheel_5/Summary_ClusterStoNCorr__OnTrack__TEC__MINUS__wheel__5
p1422
aVSiStrip/MechanicalView/TEC/MINUS/wheel_6/Summary_ClusterStoNCorr__OnTrack__TEC__MINUS__wheel__6
p1423
aVSiStrip/MechanicalView/TEC/MINUS/wheel_7/Summary_ClusterStoNCorr__OnTrack__TEC__MINUS__wheel__7
p1424
aVSiStrip/MechanicalView/TEC/MINUS/wheel_8/Summary_ClusterStoNCorr__OnTrack__TEC__MINUS__wheel__8
p1425
aVSiStrip/MechanicalView/TEC/MINUS/wheel_9/Summary_ClusterStoNCorr__OnTrack__TEC__MINUS__wheel__9
p1426
aVSiStrip/MechanicalView/TIB/layer_1/NormalizedHitResiduals_TIB__Layer__1
p1427
aVSiStrip/MechanicalView/TIB/layer_2/NormalizedHitResiduals_TIB__Layer__2
p1428
aVSiStrip/MechanicalView/TIB/layer_3/NormalizedHitResiduals_TIB__Layer__3
p1429
aVSiStrip/MechanicalView/TIB/layer_4/NormalizedHitResiduals_TIB__Layer__4
p1430
aVSiStrip/MechanicalView/TIB/layer_1/Summary_ClusterStoNCorr__OnTrack__TIB__layer__1
p1431
aVSiStrip/MechanicalView/TIB/layer_2/Summary_ClusterStoNCorr__OnTrack__TIB__layer__2
p1432
aVSiStrip/MechanicalView/TIB/layer_3/Summary_ClusterStoNCorr__OnTrack__TIB__layer__3
p1433
aVSiStrip/MechanicalView/TIB/layer_4/Summary_ClusterStoNCorr__OnTrack__TIB__layer__4
p1434
aVSiStrip/MechanicalView/TID/PLUS/wheel_1/NormalizedHitResiduals_TID__wheel__1
p1435
aVSiStrip/MechanicalView/TID/PLUS/wheel_2/NormalizedHitResiduals_TID__wheel__2
p1436
aVSiStrip/MechanicalView/TID/PLUS/wheel_3/NormalizedHitResiduals_TID__wheel__3
p1437
aVSiStrip/MechanicalView/TID/MINUS/wheel_1/NormalizedHitResiduals_TID__wheel__1
p1438
aVSiStrip/MechanicalView/TID/MINUS/wheel_2/NormalizedHitResiduals_TID__wheel__2
p1439
aVSiStrip/MechanicalView/TID/MINUS/wheel_3/NormalizedHitResiduals_TID__wheel__3
p1440
aVSiStrip/MechanicalView/TID/PLUS/wheel_1/Summary_ClusterStoNCorr__OnTrack__TID__PLUS__wheel__1
p1441
aVSiStrip/MechanicalView/TID/PLUS/wheel_2/Summary_ClusterStoNCorr__OnTrack__TID__PLUS__wheel__2
p1442
aVSiStrip/MechanicalView/TID/PLUS/wheel_3/Summary_ClusterStoNCorr__OnTrack__TID__PLUS__wheel__3
p1443
aVSiStrip/MechanicalView/TID/MINUS/wheel_1/Summary_ClusterStoNCorr__OnTrack__TID__MINUS__wheel__1
p1444
aVSiStrip/MechanicalView/TID/MINUS/wheel_2/Summary_ClusterStoNCorr__OnTrack__TID__MINUS__wheel__2
p1445
aVSiStrip/MechanicalView/TID/MINUS/wheel_3/Summary_ClusterStoNCorr__OnTrack__TID__MINUS__wheel__3
p1446
aVSiStrip/MechanicalView/TOB/layer_1/NormalizedHitResiduals_TOB__Layer__1
p1447
aVSiStrip/MechanicalView/TOB/layer_2/NormalizedHitResiduals_TOB__Layer__2
p1448
aVSiStrip/MechanicalView/TOB/layer_3/NormalizedHitResiduals_TOB__Layer__3
p1449
aVSiStrip/MechanicalView/TOB/layer_4/NormalizedHitResiduals_TOB__Layer__4
p1450
aVSiStrip/MechanicalView/TOB/layer_5/NormalizedHitResiduals_TOB__Layer__5
p1451
aVSiStrip/MechanicalView/TOB/layer_6/NormalizedHitResiduals_TOB__Layer__6
p1452
aVSiStrip/MechanicalView/TOB/layer_1/Summary_ClusterStoNCorr__OnTrack__TOB__layer__1
p1453
aVSiStrip/MechanicalView/TOB/layer_2/Summary_ClusterStoNCorr__OnTrack__TOB__layer__2
p1454
aVSiStrip/MechanicalView/TOB/layer_3/Summary_ClusterStoNCorr__OnTrack__TOB__layer__3
p1455
aVSiStrip/MechanicalView/TOB/layer_4/Summary_ClusterStoNCorr__OnTrack__TOB__layer__4
p1456
aVSiStrip/MechanicalView/TOB/layer_5/Summary_ClusterStoNCorr__OnTrack__TOB__layer__5
p1457
aVSiStrip/MechanicalView/TOB/layer_6/Summary_ClusterStoNCorr__OnTrack__TOB__layer__6
p1458
aVSiStrip/MechanicalView/MainDiagonal Position
p1459
aVSiStrip/MechanicalView/NumberOfClustersInPixel
p1460
aVSiStrip/MechanicalView/NumberOfClustersInStrip
p1461
aVTracking/TrackParameters/generalTracks/LSanalysis/Chi2oNDF_lumiFlag_GenTk
p1462
aVTracking/TrackParameters/generalTracks/LSanalysis/NumberOfRecHitsPerTrack_lumiFlag_GenTk
p1463
aVTracking/TrackParameters/generalTracks/LSanalysis/NumberOfTracks_lumiFlag_GenTk
p1464
aVTracking/TrackParameters/highPurityTracks/pt_1/GeneralProperties/SIPDxyToPV_GenTk
p1465
aVTracking/TrackParameters/highPurityTracks/pt_1/GeneralProperties/SIPDzToPV_GenTk
p1466
aVTracking/TrackParameters/highPurityTracks/pt_1/GeneralProperties/SIP3DToPV_GenTk
p1467
aVTracking/TrackParameters/generalTracks/HitProperties/NumberOfMissingOuterRecHitsPerTrack_GenTk
p1468
aVTracking/TrackParameters/generalTracks/HitProperties/NumberMORecHitsPerTrackVsPt_GenTk
p1469
aVOfflinePV/offlinePrimaryVertices/tagVtxProb
p1470
aVOfflinePV/offlinePrimaryVertices/tagType
p1471
aVOfflinePV/Resolution/PV/pull_x
p1472
aVOfflinePV/Resolution/PV/pull_y
p1473
aVOfflinePV/Resolution/PV/pull_z
p1474
aVJetMET/Jet/Cleanedak4PFJetsCHS/CHFrac_highPt_Barrel
p1475
aVJetMET/Jet/Cleanedak4PFJetsCHS/CHFrac_highPt_EndCap
p1476
aVJetMET/Jet/Cleanedak4PFJetsCHS/CHFrac_mediumPt_Barrel
p1477
aVJetMET/Jet/Cleanedak4PFJetsCHS/CHFrac_mediumPt_EndCap
p1478
aVJetMET/Jet/Cleanedak4PFJetsCHS/CHFrac_lowPt_Barrel
p1479
aVJetMET/Jet/Cleanedak4PFJetsCHS/CHFrac_lowPt_EndCap
p1480
aVJetMET/Jet/Cleanedak4PFJetsCHS/ChMultiplicity_highPt_Barrel
p1481
aVJetMET/Jet/Cleanedak4PFJetsCHS/ChMultiplicity_highPt_EndCap
p1482
aVJetMET/Jet/Cleanedak4PFJetsCHS/ChMultiplicity_mediumPt_Barrel
p1483
aVJetMET/Jet/Cleanedak4PFJetsCHS/ChMultiplicity_mediumPt_EndCap
p1484
aVJetMET/Jet/Cleanedak4PFJetsCHS/ChMultiplicity_lowPt_Barrel
p1485
aVJetMET/Jet/Cleanedak4PFJetsCHS/ChMultiplicity_lowPt_EndCap
p1486
aVJetMET/Jet/Cleanedak4PFJetsCHS/Constituents
p1487
aVJetMET/Jet/Cleanedak4PFJetsCHS/Eta
p1488
aVJetMET/Jet/Cleanedak4PFJetsCHS/Eta_uncor
p1489
aVJetMET/Jet/Cleanedak4PFJetsCHS/JetEnergyCorr
p1490
aVJetMET/Jet/Cleanedak4PFJetsCHS/NJets
p1491
aVJetMET/Jet/Cleanedak4PFJetsCHS/Phi
p1492
aVJetMET/Jet/Cleanedak4PFJetsCHS/Phi_Barrel
p1493
aVJetMET/Jet/Cleanedak4PFJetsCHS/Phi_EndCap
p1494
aVJetMET/Jet/Cleanedak4PFJetsCHS/Pt
p1495
aVJetMET/MET/pfMETT1/Cleaned/METSig
p1496
aVJetMET/vertices
p1497
aVMuons/MuonRecoAnalyzer/GlbMuon_Glb_pt
p1498
aVMuons/MuonRecoAnalyzer/GlbMuon_Glb_eta
p1499
aVMuons/MuonRecoAnalyzer/GlbMuon_Glb_phi
p1500
aVMuons/MuonRecoAnalyzer/Res_TkGlb_qOverlap
p1501
aVMuons/diMuonHistograms/GlbGlbMuon_LM
p1502
aVMuons/diMuonHistograms/GlbGlbMuon_HM
p1503
aVMuons/Isolation/global/relPFIso_R03
p1504
aVMuons/globalMuons/GeneralProperties/NumberOfMeanRecHitsPerTrack_glb
p1505
aVMuons/standAloneMuonsUpdatedAtVtx/HitProperties/NumberOfValidRecHitsPerTrack_sta
p1506
aVMuons/MuonRecoOneHLT/GlbMuon_Glb_pt
p1507
aVMuons/MuonRecoOneHLT/GlbMuon_Glb_eta
p1508
atp1509
Rp1510
(dp1511
g21
I00
sg109
I00
sg23
I00
sg333
I1
sbsg1272
g0
(g715
g2
Ntp1512
Rp1513
(dp1514
g21
I00
sg109
I00
sg23
I00
sg110
g124
sbsg1273
g0
(g184
g2
Ntp1515
Rp1516
(dp1517
g21
I00
sg109
I00
sg23
I00
sg110
I00
sbsg1274
g0
(g184
g2
Ntp1518
Rp1519
(dp1520
g21
I00
sg109
I00
sg23
I00
sg110
I01
sbsg1275
g0
(g184
g2
Ntp1521
Rp1522
(dp1523
g21
I00
sg109
I00
sg23
I00
sg110
I00
sbsg24
g629
sg26
I13
sg1237
I01
sbsVRandomNumberGeneratorService
p1524
g0
(g991
g2
Ntp1525
Rp1526
(dp1527
g17
g1524
sg19
(lp1528
VexternalLHEProducer
p1529
aVgenerator
p1530
aVVtxSmeared
p1531
aVLHCTransport
p1532
aVhiSignalLHCTransport
p1533
aVg4SimHits
p1534
aVmix
p1535
aVmixData
p1536
aVsimSiStripDigiSimLink
p1537
aVsimMuonDTDigis
p1538
aVsimMuonCSCDigis
p1539
aVsimMuonRPCDigis
p1540
aVhiSignal
p1541
aVhiSignalG4SimHits
p1542
aVfamosPileUp
p1543
aVmixGenPU
p1544
aVmixSimCaloHits
p1545
aVmixRecoTracks
p1546
aVfastSimProducer
p1547
aVfastTrackerRecHits
p1548
ag285
aVecalPreshowerRecHit
p1549
ag238
ag258
ag122
aVparamMuons
p1550
aVl1ParamMuons
p1551
aVMuonSimHits
p1552
aVCTPPSFastRecHits
p1553
aVsimBeamSpotFilter
p1554
aVRPixDetDigitizer
p1555
aVRPSiDetDigitizer
p1556
aVsaveFileName
p1557
aVsimMuonGEMDigis
p1558
asg21
I00
sg22
Nsg1529
g0
(g1015
g2
Ntp1559
Rp1560
(dp1561
g21
I00
sg109
I01
sg23
I00
sg19
(lp1562
VinitialSeed
p1563
aVengineName
p1564
asg22
Nsg1563
g0
(g321
g2
Ntp1565
Rp1566
(dp1567
g21
I00
sg109
I00
sg23
I00
sg110
I234567
sbsg1564
g0
(g715
g2
Ntp1568
Rp1569
(dp1570
g21
I00
sg109
I00
sg23
I00
sg110
VMixMaxRng
p1571
sbsbsg23
I01
sg1530
g0
(g1015
g2
Ntp1572
Rp1573
(dp1574
g21
I00
sg109
I01
sg23
I00
sg19
(lp1575
g1563
ag1564
asg22
Nsg1563
g0
(g321
g2
Ntp1576
Rp1577
(dp1578
g21
I00
sg109
I00
sg23
I00
sg110
I123456789
sbsg1564
g1569
sbsg1531
g0
(g1015
g2
Ntp1579
Rp1580
(dp1581
g21
I00
sg109
I01
sg23
I00
sg19
(lp1582
g1563
ag1564
asg22
Nsg1563
g0
(g321
g2
Ntp1583
Rp1584
(dp1585
g21
I00
sg109
I00
sg23
I00
sg110
I98765432
sbsg1564
g1569
sbsg1532
g0
(g1015
g2
Ntp1586
Rp1587
(dp1588
g21
I00
sg109
I01
sg23
I00
sg19
(lp1589
g1563
ag1564
asg22
Nsg1563
g0
(g321
g2
Ntp1590
Rp1591
(dp1592
g21
I00
sg109
I00
sg23
I00
sg110
I87654321
sbsg1564
g0
(g715
g2
Ntp1593
Rp1594
(dp1595
g21
I00
sg109
I00
sg23
I00
sg110
VTRandom3
p1596
sbsbsg1533
g0
(g1015
g2
Ntp1597
Rp1598
(dp1599
g21
I00
sg109
I01
sg23
I00
sg19
(lp1600
g1563
ag1564
asg22
Nsg1563
g0
(g321
g2
Ntp1601
Rp1602
(dp1603
g21
I00
sg109
I00
sg23
I00
sg110
I88776655
sbsg1564
g0
(g715
g2
Ntp1604
Rp1605
(dp1606
g21
I00
sg109
I00
sg23
I00
sg110
g1571
sbsbsg1534
g0
(g1015
g2
Ntp1607
Rp1608
(dp1609
g21
I00
sg109
I01
sg23
I00
sg19
(lp1610
g1563
ag1564
asg22
Nsg1563
g0
(g321
g2
Ntp1611
Rp1612
(dp1613
g21
I00
sg109
I00
sg23
I00
sg110
I11
sbsg1564
g1569
sbsg1535
g0
(g1015
g2
Ntp1614
Rp1615
(dp1616
g21
I00
sg109
I01
sg23
I00
sg19
(lp1617
g1563
ag1564
asg22
Nsg1563
g0
(g321
g2
Ntp1618
Rp1619
(dp1620
g21
I00
sg109
I00
sg23
I00
sg110
I12345
sbsg1564
g1569
sbsg1536
g0
(g1015
g2
Ntp1621
Rp1622
(dp1623
g21
I00
sg109
I01
sg23
I00
sg19
(lp1624
g1563
ag1564
asg22
Nsg1563
g0
(g321
g2
Ntp1625
Rp1626
(dp1627
g21
I00
sg109
I00
sg23
I00
sg110
I12345
sbsg1564
g1569
sbsg1537
g0
(g1015
g2
Ntp1628
Rp1629
(dp1630
g21
I00
sg109
I01
sg23
I00
sg19
(lp1631
g1563
ag1564
asg22
Nsg1563
g0
(g321
g2
Ntp1632
Rp1633
(dp1634
g21
I00
sg109
I00
sg23
I00
sg110
I1234567
sbsg1564
g1569
sbsg1538
g0
(g1015
g2
Ntp1635
Rp1636
(dp1637
g21
I00
sg109
I01
sg23
I00
sg19
(lp1638
g1563
ag1564
asg22
Nsg1563
g0
(g321
g2
Ntp1639
Rp1640
(dp1641
g21
I00
sg109
I00
sg23
I00
sg110
I1234567
sbsg1564
g1569
sbsg1539
g0
(g1015
g2
Ntp1642
Rp1643
(dp1644
g21
I00
sg109
I01
sg23
I00
sg19
(lp1645
g1563
ag1564
asg22
Nsg1563
g0
(g321
g2
Ntp1646
Rp1647
(dp1648
g21
I00
sg109
I00
sg23
I00
sg110
I11223344
sbsg1564
g1569
sbsg1540
g0
(g1015
g2
Ntp1649
Rp1650
(dp1651
g21
I00
sg109
I01
sg23
I00
sg19
(lp1652
g1563
ag1564
asg22
Nsg1563
g0
(g321
g2
Ntp1653
Rp1654
(dp1655
g21
I00
sg109
I00
sg23
I00
sg110
I1234567
sbsg1564
g1569
sbsg1541
g0
(g1015
g2
Ntp1656
Rp1657
(dp1658
g21
I00
sg109
I01
sg23
I00
sg19
(lp1659
g1563
ag1564
asg22
Nsg1563
g0
(g321
g2
Ntp1660
Rp1661
(dp1662
g21
I00
sg109
I00
sg23
I00
sg110
I123456789
sbsg1564
g1569
sbsg1542
g0
(g1015
g2
Ntp1663
Rp1664
(dp1665
g21
I00
sg109
I01
sg23
I00
sg19
(lp1666
g1563
ag1564
asg22
Nsg1563
g0
(g321
g2
Ntp1667
Rp1668
(dp1669
g21
I00
sg109
I00
sg23
I00
sg110
I11
sbsg1564
g1569
sbsg1543
g0
(g1015
g2
Ntp1670
Rp1671
(dp1672
g21
I00
sg109
I01
sg23
I00
sg19
(lp1673
g1563
ag1564
asg22
Nsg1563
g0
(g321
g2
Ntp1674
Rp1675
(dp1676
g21
I00
sg109
I00
sg23
I00
sg110
I918273
sbsg1564
g1605
sbsg1544
g0
(g1015
g2
Ntp1677
Rp1678
(dp1679
g21
I00
sg109
I01
sg23
I00
sg19
(lp1680
g1563
ag1564
asg22
Nsg1563
g0
(g321
g2
Ntp1681
Rp1682
(dp1683
g21
I00
sg109
I00
sg23
I00
sg110
I918273
sbsg1564
g1605
sbsg1545
g0
(g1015
g2
Ntp1684
Rp1685
(dp1686
g21
I00
sg109
I01
sg23
I00
sg19
(lp1687
g1563
ag1564
asg22
Nsg1563
g0
(g321
g2
Ntp1688
Rp1689
(dp1690
g21
I00
sg109
I00
sg23
I00
sg110
I918273
sbsg1564
g1605
sbsg1546
g0
(g1015
g2
Ntp1691
Rp1692
(dp1693
g21
I00
sg109
I01
sg23
I00
sg19
(lp1694
g1563
ag1564
asg22
Nsg1563
g0
(g321
g2
Ntp1695
Rp1696
(dp1697
g21
I00
sg109
I00
sg23
I00
sg110
I918273
sbsg1564
g1605
sbsg1547
g0
(g1015
g2
Ntp1698
Rp1699
(dp1700
g21
I00
sg109
I01
sg23
I00
sg19
(lp1701
g1563
ag1564
asg22
Nsg1563
g0
(g321
g2
Ntp1702
Rp1703
(dp1704
g21
I00
sg109
I00
sg23
I00
sg110
I13579
sbsg1564
g1605
sbsg1548
g0
(g1015
g2
Ntp1705
Rp1706
(dp1707
g21
I00
sg109
I01
sg23
I00
sg19
(lp1708
g1563
ag1564
asg22
Nsg1563
g0
(g321
g2
Ntp1709
Rp1710
(dp1711
g21
I00
sg109
I00
sg23
I00
sg110
I24680
sbsg1564
g1605
sbsg285
g0
(g1015
g2
Ntp1712
Rp1713
(dp1714
g21
I00
sg109
I01
sg23
I00
sg19
(lp1715
g1563
ag1564
asg22
Nsg1563
g0
(g321
g2
Ntp1716
Rp1717
(dp1718
g21
I00
sg109
I00
sg23
I00
sg110
I654321
sbsg1564
g1605
sbsg1549
g0
(g1015
g2
Ntp1719
Rp1720
(dp1721
g21
I00
sg109
I01
sg23
I00
sg19
(lp1722
g1563
ag1564
asg22
Nsg1563
g0
(g321
g2
Ntp1723
Rp1724
(dp1725
g21
I00
sg109
I00
sg23
I00
sg110
I6541321
sbsg1564
g1605
sbsg238
g0
(g1015
g2
Ntp1726
Rp1727
(dp1728
g21
I00
sg109
I01
sg23
I00
sg19
(lp1729
g1563
ag1564
asg22
Nsg1563
g0
(g321
g2
Ntp1730
Rp1731
(dp1732
g21
I00
sg109
I00
sg23
I00
sg110
I541321
sbsg1564
g1605
sbsg258
g0
(g1015
g2
Ntp1733
Rp1734
(dp1735
g21
I00
sg109
I01
sg23
I00
sg19
(lp1736
g1563
ag1564
asg22
Nsg1563
g0
(g321
g2
Ntp1737
Rp1738
(dp1739
g21
I00
sg109
I00
sg23
I00
sg110
I541321
sbsg1564
g1605
sbsg122
g0
(g1015
g2
Ntp1740
Rp1741
(dp1742
g21
I00
sg109
I01
sg23
I00
sg19
(lp1743
g1563
ag1564
asg22
Nsg1563
g0
(g321
g2
Ntp1744
Rp1745
(dp1746
g21
I00
sg109
I00
sg23
I00
sg110
I541321
sbsg1564
g1605
sbsg1550
g0
(g1015
g2
Ntp1747
Rp1748
(dp1749
g21
I00
sg109
I01
sg23
I00
sg19
(lp1750
g1563
ag1564
asg22
Nsg1563
g0
(g321
g2
Ntp1751
Rp1752
(dp1753
g21
I00
sg109
I00
sg23
I00
sg110
I54525
sbsg1564
g1605
sbsg1551
g0
(g1015
g2
Ntp1754
Rp1755
(dp1756
g21
I00
sg109
I01
sg23
I00
sg19
(lp1757
g1563
ag1564
asg22
Nsg1563
g0
(g321
g2
Ntp1758
Rp1759
(dp1760
g21
I00
sg109
I00
sg23
I00
sg110
I6453209
sbsg1564
g1605
sbsg1552
g0
(g1015
g2
Ntp1761
Rp1762
(dp1763
g21
I00
sg109
I01
sg23
I00
sg19
(lp1764
g1563
ag1564
asg22
Nsg1563
g0
(g321
g2
Ntp1765
Rp1766
(dp1767
g21
I00
sg109
I00
sg23
I00
sg110
I987346
sbsg1564
g1605
sbsg1553
g0
(g1015
g2
Ntp1768
Rp1769
(dp1770
g21
I00
sg109
I01
sg23
I00
sg19
(lp1771
g1563
ag1564
asg22
Nsg1563
g0
(g321
g2
Ntp1772
Rp1773
(dp1774
g21
I00
sg109
I00
sg23
I00
sg110
I1357987
sbsg1564
g1605
sbsg1554
g0
(g1015
g2
Ntp1775
Rp1776
(dp1777
g21
I00
sg109
I01
sg23
I00
sg19
(lp1778
g1563
ag1564
asg22
Nsg1563
g0
(g321
g2
Ntp1779
Rp1780
(dp1781
g21
I00
sg109
I00
sg23
I00
sg110
I87654321
sbsg1564
g1569
sbsg1555
g0
(g1015
g2
Ntp1782
Rp1783
(dp1784
g21
I00
sg109
I01
sg23
I00
sg19
(lp1785
g1563
ag1564
asg22
Nsg1563
g0
(g321
g2
Ntp1786
Rp1787
(dp1788
g21
I00
sg109
I00
sg23
I00
sg110
I137137
sbsg1564
g1569
sbsg1556
g0
(g1015
g2
Ntp1789
Rp1790
(dp1791
g21
I00
sg109
I01
sg23
I00
sg19
(lp1792
g1563
ag1564
asg22
Nsg1563
g0
(g321
g2
Ntp1793
Rp1794
(dp1795
g21
I00
sg109
I00
sg23
I00
sg110
I137137
sbsg1564
g1569
sbsg1557
g0
(g715
g2
Ntp1796
Rp1797
(dp1798
g21
I00
sg109
I00
sg23
I00
sg110
g124
sbsg24
g629
sg26
I13
sg1237
I01
sg1558
g0
(g1015
g2
Ntp1799
Rp1800
(dp1801
g21
I00
sg109
I01
sg23
I00
sg19
(lp1802
g1563
ag1564
asg22
Nsg1563
g0
(g321
g2
Ntp1803
Rp1804
(dp1805
g21
I00
sg109
I00
sg23
I00
sg110
I1234567
sbsg1564
g1569
sbsbsVTFileService
p1806
g0
(g991
g2
Ntp1807
Rp1808
(dp1809
g17
g1806
sg19
(lp1810
VfileName
p1811
asg21
I00
sg22
Nsg1811
g0
(g715
g2
Ntp1812
Rp1813
(dp1814
g21
I00
sg109
I01
sg23
I00
sg110
Voutput.root
p1815
sbsg23
I00
sg24
g629
sg26
I13
sg1237
I01
sbssV_Process__essources
p1816
(dp1817
VHepPDTESSource
p1818
g0
(cFWCore.ParameterSet.Modules
ESSource
p1819
g2
Ntp1820
Rp1821
(dp1822
g17
g1818
sg19
(lp1823
VpdtFileName
p1824
asg21
I00
sg22
Nsg1824
g0
(cFWCore.ParameterSet.Types
FileInPath
p1825
g2
Ntp1826
Rp1827
(dp1828
g21
I00
sg109
I01
sg23
I00
sg110
VSimGeneral/HepPDTESSource/data/pythiaparticle.tbl
p1829
sbsg23
I00
sg24
V/cvmfs/cms-ib.cern.ch/sw/x86_64/week1/el8_amd64_gcc12/cms/cmssw/CMSSW_14_1_X_2024-06-09-2300/src/SimGeneral/HepPDTESSource/python/pythiapdt_cfi.py
p1830
sg26
I3
sg27
g1818
sbsVeegeom
p1831
g0
(g1819
g2
Ntp1832
Rp1833
(dp1834
g17
VEmptyESSource
p1835
sg19
(lp1836
VrecordName
p1837
aViovIsRunNotTime
p1838
aVfirstValid
p1839
asg21
I00
sg22
Nsg1837
g0
(g715
g2
Ntp1840
Rp1841
(dp1842
g21
I00
sg109
I01
sg23
I00
sg110
VEcalMappingRcd
p1843
sbsg23
I00
sg1838
g0
(g184
g2
Ntp1844
Rp1845
(dp1846
g21
I00
sg109
I01
sg23
I00
sg110
I01
sbsg1839
g0
(cFWCore.ParameterSet.Types
vuint32
p1847
g145
(lp1848
I1
atp1849
Rp1850
(dp1851
g21
I00
sg109
I01
sg23
I00
sbsg24
V/cvmfs/cms-ib.cern.ch/sw/x86_64/week1/el8_amd64_gcc12/cms/cmssw/CMSSW_14_1_X_2024-06-09-2300/src/Geometry/EcalMapping/python/EcalMappingRecord_cfi.py
p1852
sg26
I3
sg27
g1831
sbsVessourceEcalSev
p1853
g0
(g1819
g2
Ntp1854
Rp1855
(dp1856
g17
g1835
sg19
(lp1857
g1837
ag1839
ag1838
asg21
I00
sg22
Nsg1837
g0
(g715
g2
Ntp1858
Rp1859
(dp1860
g21
I00
sg109
I01
sg23
I00
sg110
VEcalSeverityLevelAlgoRcd
p1861
sbsg23
I00
sg1839
g0
(g1847
g145
(lp1862
I1
atp1863
Rp1864
(dp1865
g21
I00
sg109
I01
sg23
I00
sbsg1838
g0
(g184
g2
Ntp1866
Rp1867
(dp1868
g21
I00
sg109
I01
sg23
I00
sg110
I01
sbsg24
V/cvmfs/cms-ib.cern.ch/sw/x86_64/week1/el8_amd64_gcc12/cms/cmssw/CMSSW_14_1_X_2024-06-09-2300/src/RecoLocalCalo/EcalRecAlgos/python/EcalSeverityLevelESProducer_cfi.py
p1869
sg26
I10
sg27
g1853
sbsVGlobalTag
p1870
g0
(g1819
g2
Ntp1871
Rp1872
(dp1873
g17
VPoolDBESSource
p1874
sg19
(lp1875
VDBParameters
p1876
aVconnect
p1877
aVglobaltag
p1878
aVsnapshotTime
p1879
aVtoGet
p1880
aVDumpStat
p1881
aVReconnectEachRun
p1882
aVRefreshAlways
p1883
aVRefreshEachRun
p1884
aVRefreshOpenIOVs
p1885
aVpfnPostfix
p1886
aVpfnPrefix
p1887
asg21
I00
sg22
Nsg1876
g0
(g1015
g2
Ntp1888
Rp1889
(dp1890
g21
I00
sg109
I01
sg23
I00
sg19
(lp1891
VauthenticationPath
p1892
aVauthenticationSystem
p1893
aVsecurity
p1894
aVmessageLevel
p1895
aVconnectionTimeout
p1896
asg22
Nsg1892
g0
(g715
g2
Ntp1897
Rp1898
(dp1899
g21
I00
sg109
I00
sg23
I00
sg110
g124
sbsg1893
g0
(g305
g2
Ntp1900
Rp1901
(dp1902
g21
I00
sg109
I00
sg23
I00
sg110
I0
sbsg1894
g0
(g715
g2
Ntp1903
Rp1904
(dp1905
g21
I00
sg109
I00
sg23
I00
sg110
g124
sbsg1895
g0
(g305
g2
Ntp1906
Rp1907
(dp1908
g21
I00
sg109
I00
sg23
I00
sg110
I0
sbsg1896
g0
(g305
g2
Ntp1909
Rp1910
(dp1911
g21
I00
sg109
I00
sg23
I00
sg110
I0
sbsbsg23
I01
sg1877
g0
(g715
g2
Ntp1912
Rp1913
(dp1914
g21
I00
sg109
I01
sg23
I00
sg110
Vfrontier://FrontierProd/CMS_CONDITIONS
p1915
sbsg1878
g0
(g715
g2
Ntp1916
Rp1917
(dp1918
g21
I00
sg109
I01
sg23
I00
sg110
V140X_dataRun3_Prompt_v2
p1919
sbsg1879
g0
(g715
g2
Ntp1920
Rp1921
(dp1922
g21
I00
sg109
I01
sg23
I00
sg110
g124
sbsg1880
g0
(cFWCore.ParameterSet.Types
VPSet
p1923
g145
(lp1924
tp1925
Rp1926
(dp1927
g21
I00
sg109
I01
sg23
I00
sg333
I1
sbsg1881
g0
(g184
g2
Ntp1928
Rp1929
(dp1930
g21
I00
sg109
I00
sg23
I00
sg110
I00
sbsg1882
g0
(g184
g2
Ntp1931
Rp1932
(dp1933
g21
I00
sg109
I00
sg23
I00
sg110
I00
sbsg1883
g0
(g184
g2
Ntp1934
Rp1935
(dp1936
g21
I00
sg109
I00
sg23
I00
sg110
I00
sbsg1884
g0
(g184
g2
Ntp1937
Rp1938
(dp1939
g21
I00
sg109
I00
sg23
I00
sg110
I00
sbsg1885
g0
(g184
g2
Ntp1940
Rp1941
(dp1942
g21
I00
sg109
I00
sg23
I00
sg110
I00
sbsg1886
g0
(g715
g2
Ntp1943
Rp1944
(dp1945
g21
I00
sg109
I00
sg23
I00
sg110
g124
sbsg1887
g0
(g715
g2
Ntp1946
Rp1947
(dp1948
g21
I00
sg109
I00
sg23
I00
sg110
g124
sbsg24
V/cvmfs/cms-ib.cern.ch/sw/x86_64/week1/el8_amd64_gcc12/cms/cmssw/CMSSW_14_1_X_2024-06-09-2300/src/CondCore/ESSources/python/CondDBESSource_cfi.py
p1949
sg26
I8
sg27
g1870
sbsVHcalTimeSlewEP
p1950
g0
(g1819
g2
Ntp1951
Rp1952
(dp1953
g17
g1950
sg19
(lp1954
VappendToDataLabel
p1955
aVtimeSlewParametersM2
p1956
aVtimeSlewParametersM3
p1957
asg21
I00
sg22
Nsg1955
g0
(g715
g2
Ntp1958
Rp1959
(dp1960
g21
I00
sg109
I01
sg23
I00
sg110
VHBHE
p1961
sbsg23
I00
sg1956
g0
(g1923
g145
(lp1962
g0
(g1015
g2
Ntp1963
Rp1964
(dp1965
g21
I00
sg109
I01
sg23
I00
sg19
(lp1966
Vtzero
p1967
aVslope
p1968
aVtmax
p1969
asg22
Nsg1967
g0
(g105
g2
Ntp1970
Rp1971
(dp1972
g21
I00
sg109
I01
sg23
I00
sg110
F23.960177
sbsg1968
g0
(g105
g2
Ntp1973
Rp1974
(dp1975
g21
I00
sg109
I01
sg23
I00
sg110
F-3.178648
sbsg1969
g0
(g105
g2
Ntp1976
Rp1977
(dp1978
g21
I00
sg109
I01
sg23
I00
sg110
F16.0
sbsbag0
(g1015
g2
Ntp1979
Rp1980
(dp1981
g21
I00
sg109
I01
sg23
I00
sg19
(lp1982
g1967
ag1968
ag1969
asg22
Nsg1967
g0
(g105
g2
Ntp1983
Rp1984
(dp1985
g21
I00
sg109
I01
sg23
I00
sg110
F11.977461
sbsg1968
g0
(g105
g2
Ntp1986
Rp1987
(dp1988
g21
I00
sg109
I01
sg23
I00
sg110
F-1.5610227
sbsg1969
g0
(g105
g2
Ntp1989
Rp1990
(dp1991
g21
I00
sg109
I01
sg23
I00
sg110
F10.0
sbsbag0
(g1015
g2
Ntp1992
Rp1993
(dp1994
g21
I00
sg109
I01
sg23
I00
sg19
(lp1995
g1967
ag1968
ag1969
asg22
Nsg1967
g0
(g105
g2
Ntp1996
Rp1997
(dp1998
g21
I00
sg109
I01
sg23
I00
sg110
F9.109694
sbsg1968
g0
(g105
g2
Ntp1999
Rp2000
(dp2001
g21
I00
sg109
I01
sg23
I00
sg110
F-1.075824
sbsg1969
g0
(g105
g2
Ntp2002
Rp2003
(dp2004
g21
I00
sg109
I01
sg23
I00
sg110
F6.25
sbsbatp2005
Rp2006
(dp2007
g21
I00
sg109
I01
sg23
I00
sg333
I1
sbsg1957
g0
(g1923
g145
(lp2008
g0
(g1015
g2
Ntp2009
Rp2010
(dp2011
g21
I00
sg109
I01
sg23
I00
sg19
(lp2012
Vcap
p2013
aVtspar0
p2014
aVtspar1
p2015
aVtspar2
p2016
aVtspar0_siPM
p2017
aVtspar1_siPM
p2018
aVtspar2_siPM
p2019
asg22
Nsg2013
g0
(g105
g2
Ntp2020
Rp2021
(dp2022
g21
I00
sg109
I01
sg23
I00
sg110
F6.0
sbsg2014
g0
(g105
g2
Ntp2023
Rp2024
(dp2025
g21
I00
sg109
I01
sg23
I00
sg110
F12.2999
sbsg2015
g0
(g105
g2
Ntp2026
Rp2027
(dp2028
g21
I00
sg109
I01
sg23
I00
sg110
F-2.19142
sbsg2016
g0
(g105
g2
Ntp2029
Rp2030
(dp2031
g21
I00
sg109
I01
sg23
I00
sg110
F0.0
sbsg2017
g0
(g105
g2
Ntp2032
Rp2033
(dp2034
g21
I00
sg109
I01
sg23
I00
sg110
F0.0
sbsg2018
g0
(g105
g2
Ntp2035
Rp2036
(dp2037
g21
I00
sg109
I01
sg23
I00
sg110
F0.0
sbsg2019
g0
(g105
g2
Ntp2038
Rp2039
(dp2040
g21
I00
sg109
I01
sg23
I00
sg110
F0.0
sbsbag0
(g1015
g2
Ntp2041
Rp2042
(dp2043
g21
I00
sg109
I01
sg23
I00
sg19
(lp2044
g2013
ag2014
ag2015
ag2016
ag2017
ag2018
ag2019
asg22
Nsg2013
g0
(g105
g2
Ntp2045
Rp2046
(dp2047
g21
I00
sg109
I01
sg23
I00
sg110
F6.0
sbsg2014
g0
(g105
g2
Ntp2048
Rp2049
(dp2050
g21
I00
sg109
I01
sg23
I00
sg110
F15.5
sbsg2015
g0
(g105
g2
Ntp2051
Rp2052
(dp2053
g21
I00
sg109
I01
sg23
I00
sg110
F-3.2
sbsg2016
g0
(g105
g2
Ntp2054
Rp2055
(dp2056
g21
I00
sg109
I01
sg23
I00
sg110
F32.0
sbsg2017
g0
(g105
g2
Ntp2057
Rp2058
(dp2059
g21
I00
sg109
I01
sg23
I00
sg110
F0.0
sbsg2018
g0
(g105
g2
Ntp2060
Rp2061
(dp2062
g21
I00
sg109
I01
sg23
I00
sg110
F0.0
sbsg2019
g0
(g105
g2
Ntp2063
Rp2064
(dp2065
g21
I00
sg109
I01
sg23
I00
sg110
F0.0
sbsbag0
(g1015
g2
Ntp2066
Rp2067
(dp2068
g21
I00
sg109
I01
sg23
I00
sg19
(lp2069
g2013
ag2014
ag2015
ag2016
ag2017
ag2018
ag2019
asg22
Nsg2013
g0
(g105
g2
Ntp2070
Rp2071
(dp2072
g21
I00
sg109
I01
sg23
I00
sg110
F6.0
sbsg2014
g0
(g105
g2
Ntp2073
Rp2074
(dp2075
g21
I00
sg109
I01
sg23
I00
sg110
F12.2999
sbsg2015
g0
(g105
g2
Ntp2076
Rp2077
(dp2078
g21
I00
sg109
I01
sg23
I00
sg110
F-2.19142
sbsg2016
g0
(g105
g2
Ntp2079
Rp2080
(dp2081
g21
I00
sg109
I01
sg23
I00
sg110
F0.0
sbsg2017
g0
(g105
g2
Ntp2082
Rp2083
(dp2084
g21
I00
sg109
I01
sg23
I00
sg110
F0.0
sbsg2018
g0
(g105
g2
Ntp2085
Rp2086
(dp2087
g21
I00
sg109
I01
sg23
I00
sg110
F0.0
sbsg2019
g0
(g105
g2
Ntp2088
Rp2089
(dp2090
g21
I00
sg109
I01
sg23
I00
sg110
F0.0
sbsbag0
(g1015
g2
Ntp2091
Rp2092
(dp2093
g21
I00
sg109
I01
sg23
I00
sg19
(lp2094
g2013
ag2014
ag2015
ag2016
ag2017
ag2018
ag2019
asg22
Nsg2013
g0
(g105
g2
Ntp2095
Rp2096
(dp2097
g21
I00
sg109
I01
sg23
I00
sg110
F6.0
sbsg2014
g0
(g105
g2
Ntp2098
Rp2099
(dp2100
g21
I00
sg109
I01
sg23
I00
sg110
F12.2999
sbsg2015
g0
(g105
g2
Ntp2101
Rp2102
(dp2103
g21
I00
sg109
I01
sg23
I00
sg110
F-2.19142
sbsg2016
g0
(g105
g2
Ntp2104
Rp2105
(dp2106
g21
I00
sg109
I01
sg23
I00
sg110
F0.0
sbsg2017
g0
(g105
g2
Ntp2107
Rp2108
(dp2109
g21
I00
sg109
I01
sg23
I00
sg110
F0.0
sbsg2018
g0
(g105
g2
Ntp2110
Rp2111
(dp2112
g21
I00
sg109
I01
sg23
I00
sg110
F0.0
sbsg2019
g0
(g105
g2
Ntp2113
Rp2114
(dp2115
g21
I00
sg109
I01
sg23
I00
sg110
F0.0
sbsbatp2116
Rp2117
(dp2118
g21
I00
sg109
I01
sg23
I00
sg333
I1
sbsg24
V/cvmfs/cms-ib.cern.ch/sw/x86_64/week1/el8_amd64_gcc12/cms/cmssw/CMSSW_14_1_X_2024-06-09-2300/src/CalibCalorimetry/HcalPlugins/python/HcalTimeSlew_cff.py
p2119
sg26
I3
sg27
g1950
sbsVes_hardcode
p2120
g0
(g1819
g2
Ntp2121
Rp2122
(dp2123
g17
VHcalHardcodeCalibrations
p2124
sg19
(lp2125
g1880
aViLumi
p2126
aVHBRecalibration
p2127
aVHBreCalibCutoff
p2128
aVHBmeanenergies
p2129
aVHERecalibration
p2130
aVHEreCalibCutoff
p2131
aVHEmeanenergies
p2132
aVHFRecalibration
p2133
aVHFRecalParameterBlock
p2134
aVGainWidthsForTrigPrims
p2135
aVuseHBUpgrade
p2136
aVuseHEUpgrade
p2137
aVuseHFUpgrade
p2138
aVuseHOUpgrade
p2139
aVtestHFQIE10
p2140
aVtestHEPlan1
p2141
aVkillHE
p2142
aVuseLayer0Weight
p2143
aVuseIeta18depth1
p2144
aVhb
p2145
aVhe
p2146
aVhf
p2147
aVho
p2148
aVhbUpgrade
p2149
aVheUpgrade
p2150
aVhfUpgrade
p2151
aVSiPMCharacteristics
p2152
asg21
I00
sg22
Nsg1880
g0
(g325
g145
(lp2153
VGainWidths
p2154
atp2155
Rp2156
(dp2157
g21
I00
sg109
I00
sg23
I00
sg333
I1
sbsg23
I01
sg2126
g0
(g105
g2
Ntp2158
Rp2159
(dp2160
g21
I00
sg109
I01
sg23
I00
sg110
F-1.0
sbsg2127
g0
(g184
g2
Ntp2161
Rp2162
(dp2163
g21
I00
sg109
I01
sg23
I00
sg110
I00
sbsg2128
g0
(g105
g2
Ntp2164
Rp2165
(dp2166
g21
I00
sg109
I01
sg23
I00
sg110
F100.0
sbsg2129
g0
(g1825
g2
Ntp2167
Rp2168
(dp2169
g21
I00
sg109
I01
sg23
I00
sg110
VCalibCalorimetry/HcalPlugins/data/meanenergiesHB.txt
p2170
sbsg2130
g0
(g184
g2
Ntp2171
Rp2172
(dp2173
g21
I00
sg109
I01
sg23
I00
sg110
I00
sbsg2131
g0
(g105
g2
Ntp2174
Rp2175
(dp2176
g21
I00
sg109
I01
sg23
I00
sg110
F100.0
sbsg2132
g0
(g1825
g2
Ntp2177
Rp2178
(dp2179
g21
I00
sg109
I01
sg23
I00
sg110
VCalibCalorimetry/HcalPlugins/data/meanenergiesHE.txt
p2180
sbsg2133
g0
(g184
g2
Ntp2181
Rp2182
(dp2183
g21
I00
sg109
I01
sg23
I00
sg110
I00
sbsg2134
g0
(g1015
g2
Ntp2184
Rp2185
(dp2186
g21
I00
sg109
I01
sg23
I00
sg19
(lp2187
VHFdepthOneParameterA
p2188
aVHFdepthOneParameterB
p2189
aVHFdepthTwoParameterA
p2190
aVHFdepthTwoParameterB
p2191
asg22
Nsg2188
g0
(g144
g145
(lp2192
F0.004123
aF0.00602
aF0.008201
aF0.010489
aF0.013379
aF0.016997
aF0.021464
aF0.027371
aF0.034195
aF0.044807
aF0.058939
aF0.125497
atp2193
Rp2194
(dp2195
g21
I00
sg109
I01
sg23
I00
sbsg2189
g0
(g144
g145
(lp2196
F-4e-06
aF-2e-06
aF0.0
aF4e-06
aF1.5e-05
aF2.6e-05
aF6.3e-05
aF8.4e-05
aF0.00016
aF0.000107
aF0.000425
aF0.000209
atp2197
Rp2198
(dp2199
g21
I00
sg109
I01
sg23
I00
sbsg2190
g0
(g144
g145
(lp2200
F0.002861
aF0.004168
aF0.0064
aF0.008388
aF0.011601
aF0.014425
aF0.018633
aF0.023232
aF0.028274
aF0.035447
aF0.051579
aF0.086593
atp2201
Rp2202
(dp2203
g21
I00
sg109
I01
sg23
I00
sbsg2191
g0
(g144
g145
(lp2204
F-2e-06
aF-0.0
aF-7e-06
aF-6e-06
aF-2e-06
aF1e-06
aF1.9e-05
aF3.1e-05
aF6.7e-05
aF1.2e-05
aF0.000157
aF-3e-06
atp2205
Rp2206
(dp2207
g21
I00
sg109
I01
sg23
I00
sbsg27
g2134
sbsg2135
g0
(g184
g2
Ntp2208
Rp2209
(dp2210
g21
I00
sg109
I01
sg23
I00
sg110
I00
sbsg2136
g0
(g184
g2
Ntp2211
Rp2212
(dp2213
g21
I00
sg109
I01
sg23
I00
sg110
I01
sbsg2137
g0
(g184
g2
Ntp2214
Rp2215
(dp2216
g21
I00
sg109
I01
sg23
I00
sg110
I01
sbsg2138
g0
(g184
g2
Ntp2217
Rp2218
(dp2219
g21
I00
sg109
I01
sg23
I00
sg110
I01
sbsg2139
g0
(g184
g2
Ntp2220
Rp2221
(dp2222
g21
I00
sg109
I01
sg23
I00
sg110
I01
sbsg2140
g0
(g184
g2
Ntp2223
Rp2224
(dp2225
g21
I00
sg109
I01
sg23
I00
sg110
I00
sbsg2141
g0
(g184
g2
Ntp2226
Rp2227
(dp2228
g21
I00
sg109
I01
sg23
I00
sg110
I00
sbsg2142
g0
(g184
g2
Ntp2229
Rp2230
(dp2231
g21
I00
sg109
I01
sg23
I00
sg110
I00
sbsg2143
g0
(g184
g2
Ntp2232
Rp2233
(dp2234
g21
I00
sg109
I01
sg23
I00
sg110
I01
sbsg2144
g0
(g184
g2
Ntp2235
Rp2236
(dp2237
g21
I00
sg109
I01
sg23
I00
sg110
I00
sbsg2145
g0
(g1015
g2
Ntp2238
Rp2239
(dp2240
g21
I00
sg109
I01
sg23
I00
sg19
(lp2241
Vpedestal
p2242
aVpedestalWidth
p2243
aVgain
p2244
aVgainWidth
p2245
aVzsThreshold
p2246
aVqieType
p2247
aVqieOffset
p2248
aVqieSlope
p2249
aVmcShape
p2250
aVrecoShape
p2251
aVphotoelectronsToAnalog
p2252
aVdarkCurrent
p2253
aVnoiseCorrelation
p2254
aVnoiseThreshold
p2255
aVseedThreshold
p2256
aVdoRadiationDamage
p2257
asg22
Nsg2242
g0
(g105
g2
Ntp2258
Rp2259
(dp2260
g21
I00
sg109
I01
sg23
I00
sg110
F3.285
sbsg2243
g0
(g105
g2
Ntp2261
Rp2262
(dp2263
g21
I00
sg109
I01
sg23
I00
sg110
F0.809
sbsg2244
g0
(g144
g145
(lp2264
F0.19
atp2265
Rp2266
(dp2267
g21
I00
sg109
I01
sg23
I00
sbsg2245
g0
(g144
g145
(lp2268
F0.0
atp2269
Rp2270
(dp2271
g21
I00
sg109
I01
sg23
I00
sbsg2246
g0
(g305
g2
Ntp2272
Rp2273
(dp2274
g21
I00
sg109
I01
sg23
I00
sg110
I8
sbsg2247
g0
(g305
g2
Ntp2275
Rp2276
(dp2277
g21
I00
sg109
I01
sg23
I00
sg110
I0
sbsg2248
g0
(g144
g145
(lp2278
F-0.49
aF1.8
aF7.2
aF37.9
atp2279
Rp2280
(dp2281
g21
I00
sg109
I01
sg23
I00
sbsg2249
g0
(g144
g145
(lp2282
F0.912
aF0.917
aF0.922
aF0.923
atp2283
Rp2284
(dp2285
g21
I00
sg109
I01
sg23
I00
sbsg2250
g0
(g305
g2
Ntp2286
Rp2287
(dp2288
g21
I00
sg109
I01
sg23
I00
sg110
I125
sbsg2251
g0
(g305
g2
Ntp2289
Rp2290
(dp2291
g21
I00
sg109
I01
sg23
I00
sg110
I105
sbsg2252
g0
(g105
g2
Ntp2292
Rp2293
(dp2294
g21
I00
sg109
I01
sg23
I00
sg110
F0.3305
sbsg2253
g0
(g144
g145
(lp2295
F0.0
atp2296
Rp2297
(dp2298
g21
I00
sg109
I01
sg23
I00
sbsg2254
g0
(g144
g145
(lp2299
F0.0
atp2300
Rp2301
(dp2302
g21
I00
sg109
I01
sg23
I00
sbsg2255
g0
(g105
g2
Ntp2303
Rp2304
(dp2305
g21
I00
sg109
I01
sg23
I00
sg110
F0.0
sbsg2256
g0
(g105
g2
Ntp2306
Rp2307
(dp2308
g21
I00
sg109
I01
sg23
I00
sg110
F0.1
sbsg2257
g0
(g184
g2
Ntp2309
Rp2310
(dp2311
g21
I00
sg109
I01
sg23
I00
sg110
I00
sbsbsg2146
g0
(g1015
g2
Ntp2312
Rp2313
(dp2314
g21
I00
sg109
I01
sg23
I00
sg19
(lp2315
g2242
ag2243
ag2244
ag2245
ag2246
ag2247
ag2248
ag2249
ag2250
ag2251
ag2252
ag2253
ag2254
ag2255
ag2256
ag2257
asg22
Nsg2242
g0
(g105
g2
Ntp2316
Rp2317
(dp2318
g21
I00
sg109
I01
sg23
I00
sg110
F3.163
sbsg2243
g0
(g105
g2
Ntp2319
Rp2320
(dp2321
g21
I00
sg109
I01
sg23
I00
sg110
F0.9698
sbsg2244
g0
(g144
g145
(lp2322
F0.23
atp2323
Rp2324
(dp2325
g21
I00
sg109
I01
sg23
I00
sbsg2245
g0
(g144
g145
(lp2326
I0
atp2327
Rp2328
(dp2329
g21
I00
sg109
I01
sg23
I00
sbsg2246
g0
(g305
g2
Ntp2330
Rp2331
(dp2332
g21
I00
sg109
I01
sg23
I00
sg110
I9
sbsg2247
g0
(g305
g2
Ntp2333
Rp2334
(dp2335
g21
I00
sg109
I01
sg23
I00
sg110
I0
sbsg2248
g0
(g144
g145
(lp2336
F-0.38
aF2.0
aF7.6
aF39.6
atp2337
Rp2338
(dp2339
g21
I00
sg109
I01
sg23
I00
sbsg2249
g0
(g144
g145
(lp2340
F0.912
aF0.916
aF0.92
aF0.922
atp2341
Rp2342
(dp2343
g21
I00
sg109
I01
sg23
I00
sbsg2250
g0
(g305
g2
Ntp2344
Rp2345
(dp2346
g21
I00
sg109
I01
sg23
I00
sg110
I125
sbsg2251
g0
(g305
g2
Ntp2347
Rp2348
(dp2349
g21
I00
sg109
I01
sg23
I00
sg110
I105
sbsg2252
g0
(g105
g2
Ntp2350
Rp2351
(dp2352
g21
I00
sg109
I01
sg23
I00
sg110
F0.3305
sbsg2253
g0
(g144
g145
(lp2353
F0.0
atp2354
Rp2355
(dp2356
g21
I00
sg109
I01
sg23
I00
sbsg2254
g0
(g144
g145
(lp2357
F0.0
atp2358
Rp2359
(dp2360
g21
I00
sg109
I01
sg23
I00
sbsg2255
g0
(g105
g2
Ntp2361
Rp2362
(dp2363
g21
I00
sg109
I01
sg23
I00
sg110
F0.0
sbsg2256
g0
(g105
g2
Ntp2364
Rp2365
(dp2366
g21
I00
sg109
I01
sg23
I00
sg110
F0.1
sbsg2257
g0
(g184
g2
Ntp2367
Rp2368
(dp2369
g21
I00
sg109
I01
sg23
I00
sg110
I00
sbsbsg2147
g0
(g1015
g2
Ntp2370
Rp2371
(dp2372
g21
I00
sg109
I01
sg23
I00
sg19
(lp2373
g2242
ag2243
ag2244
ag2245
ag2246
ag2247
ag2248
ag2249
ag2250
ag2251
ag2252
ag2253
ag2254
ag2255
ag2256
ag2257
asg22
Nsg2242
g0
(g105
g2
Ntp2374
Rp2375
(dp2376
g21
I00
sg109
I01
sg23
I00
sg110
F9.354
sbsg2243
g0
(g105
g2
Ntp2377
Rp2378
(dp2379
g21
I00
sg109
I01
sg23
I00
sg110
F2.516
sbsg2244
g0
(g144
g145
(lp2380
F0.14
aF0.135
atp2381
Rp2382
(dp2383
g21
I00
sg109
I01
sg23
I00
sbsg2245
g0
(g144
g145
(lp2384
F0.0
aF0.0
atp2385
Rp2386
(dp2387
g21
I00
sg109
I01
sg23
I00
sbsg2246
g0
(g305
g2
Ntp2388
Rp2389
(dp2390
g21
I00
sg109
I01
sg23
I00
sg110
I-9999
sbsg2247
g0
(g305
g2
Ntp2391
Rp2392
(dp2393
g21
I00
sg109
I01
sg23
I00
sg110
I0
sbsg2248
g0
(g144
g145
(lp2394
F-0.87
aF1.4
aF7.8
aF-29.6
atp2395
Rp2396
(dp2397
g21
I00
sg109
I01
sg23
I00
sbsg2249
g0
(g144
g145
(lp2398
F0.359
aF0.358
aF0.36
aF0.367
atp2399
Rp2400
(dp2401
g21
I00
sg109
I01
sg23
I00
sbsg2250
g0
(g305
g2
Ntp2402
Rp2403
(dp2404
g21
I00
sg109
I01
sg23
I00
sg110
I301
sbsg2251
g0
(g305
g2
Ntp2405
Rp2406
(dp2407
g21
I00
sg109
I01
sg23
I00
sg110
I301
sbsg2252
g0
(g105
g2
Ntp2408
Rp2409
(dp2410
g21
I00
sg109
I01
sg23
I00
sg110
F0.0
sbsg2253
g0
(g144
g145
(lp2411
F0.0
atp2412
Rp2413
(dp2414
g21
I00
sg109
I01
sg23
I00
sbsg2254
g0
(g144
g145
(lp2415
F0.0
atp2416
Rp2417
(dp2418
g21
I00
sg109
I01
sg23
I00
sbsg2255
g0
(g105
g2
Ntp2419
Rp2420
(dp2421
g21
I00
sg109
I01
sg23
I00
sg110
F0.0
sbsg2256
g0
(g105
g2
Ntp2422
Rp2423
(dp2424
g21
I00
sg109
I01
sg23
I00
sg110
F0.1
sbsg2257
g0
(g184
g2
Ntp2425
Rp2426
(dp2427
g21
I00
sg109
I01
sg23
I00
sg110
I00
sbsbsg2148
g0
(g1015
g2
Ntp2428
Rp2429
(dp2430
g21
I00
sg109
I01
sg23
I00
sg19
(lp2431
g2242
ag2243
ag2244
ag2245
ag2246
ag2247
ag2248
ag2249
ag2250
ag2251
ag2252
ag2253
ag2254
ag2255
ag2256
ag2257
asg22
Nsg2242
g0
(g105
g2
Ntp2432
Rp2433
(dp2434
g21
I00
sg109
I01
sg23
I00
sg110
F12.06
sbsg2243
g0
(g105
g2
Ntp2435
Rp2436
(dp2437
g21
I00
sg109
I01
sg23
I00
sg110
F0.6285
sbsg2244
g0
(g144
g145
(lp2438
F0.006
aF0.0087
atp2439
Rp2440
(dp2441
g21
I00
sg109
I01
sg23
I00
sbsg2245
g0
(g144
g145
(lp2442
F0.0
aF0.0
atp2443
Rp2444
(dp2445
g21
I00
sg109
I01
sg23
I00
sbsg2246
g0
(g305
g2
Ntp2446
Rp2447
(dp2448
g21
I00
sg109
I01
sg23
I00
sg110
I24
sbsg2247
g0
(g305
g2
Ntp2449
Rp2450
(dp2451
g21
I00
sg109
I01
sg23
I00
sg110
I0
sbsg2248
g0
(g144
g145
(lp2452
F-0.44
aF1.4
aF7.1
aF38.5
atp2453
Rp2454
(dp2455
g21
I00
sg109
I01
sg23
I00
sbsg2249
g0
(g144
g145
(lp2456
F0.907
aF0.915
aF0.92
aF0.921
atp2457
Rp2458
(dp2459
g21
I00
sg109
I01
sg23
I00
sbsg2250
g0
(g305
g2
Ntp2460
Rp2461
(dp2462
g21
I00
sg109
I01
sg23
I00
sg110
I201
sbsg2251
g0
(g305
g2
Ntp2463
Rp2464
(dp2465
g21
I00
sg109
I01
sg23
I00
sg110
I201
sbsg2252
g0
(g105
g2
Ntp2466
Rp2467
(dp2468
g21
I00
sg109
I01
sg23
I00
sg110
F4.0
sbsg2253
g0
(g144
g145
(lp2469
F0.0
atp2470
Rp2471
(dp2472
g21
I00
sg109
I01
sg23
I00
sbsg2254
g0
(g144
g145
(lp2473
F0.0
atp2474
Rp2475
(dp2476
g21
I00
sg109
I01
sg23
I00
sbsg2255
g0
(g105
g2
Ntp2477
Rp2478
(dp2479
g21
I00
sg109
I01
sg23
I00
sg110
F0.0
sbsg2256
g0
(g105
g2
Ntp2480
Rp2481
(dp2482
g21
I00
sg109
I01
sg23
I00
sg110
F0.1
sbsg2257
g0
(g184
g2
Ntp2483
Rp2484
(dp2485
g21
I00
sg109
I01
sg23
I00
sg110
I00
sbsbsg2149
g0
(g1015
g2
Ntp2486
Rp2487
(dp2488
g21
I00
sg109
I01
sg23
I00
sg19
(lp2489
g2242
ag2243
ag2244
ag2245
ag2246
ag2247
ag2248
ag2249
ag2250
ag2251
ag2252
ag2253
ag2254
ag2255
ag2256
ag2257
aVradiationDamage
p2490
asg22
Nsg2242
g0
(g105
g2
Ntp2491
Rp2492
(dp2493
g21
I00
sg109
I01
sg23
I00
sg110
F17.3
sbsg2243
g0
(g105
g2
Ntp2494
Rp2495
(dp2496
g21
I00
sg109
I01
sg23
I00
sg110
F1.5
sbsg2244
g0
(g144
g145
(lp2497
F0.0006252
atp2498
Rp2499
(dp2500
g21
I00
sg109
I01
sg23
I00
sbsg2245
g0
(g144
g145
(lp2501
I0
atp2502
Rp2503
(dp2504
g21
I00
sg109
I01
sg23
I00
sbsg2246
g0
(g305
g2
Ntp2505
Rp2506
(dp2507
g21
I00
sg109
I01
sg23
I00
sg110
I16
sbsg2247
g0
(g305
g2
Ntp2508
Rp2509
(dp2510
g21
I00
sg109
I01
sg23
I00
sg110
I2
sbsg2248
g0
(g144
g145
(lp2511
F0.0
aF0.0
aF0.0
aF0.0
atp2512
Rp2513
(dp2514
g21
I00
sg109
I01
sg23
I00
sbsg2249
g0
(g144
g145
(lp2515
F0.05376
aF0.05376
aF0.05376
aF0.05376
atp2516
Rp2517
(dp2518
g21
I00
sg109
I01
sg23
I00
sbsg2250
g0
(g305
g2
Ntp2519
Rp2520
(dp2521
g21
I00
sg109
I01
sg23
I00
sg110
I206
sbsg2251
g0
(g305
g2
Ntp2522
Rp2523
(dp2524
g21
I00
sg109
I01
sg23
I00
sg110
I208
sbsg2252
g0
(g105
g2
Ntp2525
Rp2526
(dp2527
g21
I00
sg109
I01
sg23
I00
sg110
F40.0
sbsg2253
g0
(g144
g145
(lp2528
F0.01
aF0.015
atp2529
Rp2530
(dp2531
g21
I00
sg109
I01
sg23
I00
sbsg2254
g0
(g144
g145
(lp2532
F0.26
aF0.254
atp2533
Rp2534
(dp2535
g21
I00
sg109
I01
sg23
I00
sbsg2255
g0
(g105
g2
Ntp2536
Rp2537
(dp2538
g21
I00
sg109
I01
sg23
I00
sg110
F0.0
sbsg2256
g0
(g105
g2
Ntp2539
Rp2540
(dp2541
g21
I00
sg109
I01
sg23
I00
sg110
F0.1
sbsg2257
g0
(g184
g2
Ntp2542
Rp2543
(dp2544
g21
I00
sg109
I01
sg23
I00
sg110
I01
sbsg2490
g0
(g1015
g2
Ntp2545
Rp2546
(dp2547
g21
I00
sg109
I01
sg23
I00
sg19
(lp2548
VtemperatureBase
p2549
aVtemperatureNew
p2550
aVintlumiOffset
p2551
aVdepVsTemp
p2552
aVintlumiToNeutrons
p2553
aVdepVsNeutrons
p2554
asg22
Nsg2549
g0
(g105
g2
Ntp2555
Rp2556
(dp2557
g21
I00
sg109
I01
sg23
I00
sg110
I20
sbsg2550
g0
(g105
g2
Ntp2558
Rp2559
(dp2560
g21
I00
sg109
I01
sg23
I00
sg110
I-5
sbsg2551
g0
(g105
g2
Ntp2561
Rp2562
(dp2563
g21
I00
sg109
I01
sg23
I00
sg110
I150
sbsg2552
g0
(g105
g2
Ntp2564
Rp2565
(dp2566
g21
I00
sg109
I01
sg23
I00
sg110
F0.0631
sbsg2553
g0
(g105
g2
Ntp2567
Rp2568
(dp2569
g21
I00
sg109
I01
sg23
I00
sg110
F367000000.0
sbsg2554
g0
(g144
g145
(lp2570
F5.543e-10
aF8.012e-10
atp2571
Rp2572
(dp2573
g21
I00
sg109
I01
sg23
I00
sbsbsbsg2150
g0
(g1015
g2
Ntp2574
Rp2575
(dp2576
g21
I00
sg109
I01
sg23
I00
sg19
(lp2577
g2242
ag2243
ag2244
ag2245
ag2246
ag2247
ag2248
ag2249
ag2250
ag2251
ag2252
ag2253
ag2254
ag2255
ag2256
ag2257
ag2490
asg22
Nsg2242
g0
(g105
g2
Ntp2578
Rp2579
(dp2580
g21
I00
sg109
I01
sg23
I00
sg110
F17.3
sbsg2243
g0
(g105
g2
Ntp2581
Rp2582
(dp2583
g21
I00
sg109
I01
sg23
I00
sg110
F1.5
sbsg2244
g0
(g144
g145
(lp2584
F0.0006252
atp2585
Rp2586
(dp2587
g21
I00
sg109
I01
sg23
I00
sbsg2245
g0
(g144
g145
(lp2588
I0
atp2589
Rp2590
(dp2591
g21
I00
sg109
I01
sg23
I00
sbsg2246
g0
(g305
g2
Ntp2592
Rp2593
(dp2594
g21
I00
sg109
I01
sg23
I00
sg110
I16
sbsg2247
g0
(g305
g2
Ntp2595
Rp2596
(dp2597
g21
I00
sg109
I01
sg23
I00
sg110
I2
sbsg2248
g0
(g144
g145
(lp2598
F0.0
aF0.0
aF0.0
aF0.0
atp2599
Rp2600
(dp2601
g21
I00
sg109
I01
sg23
I00
sbsg2249
g0
(g144
g145
(lp2602
F0.05376
aF0.05376
aF0.05376
aF0.05376
atp2603
Rp2604
(dp2605
g21
I00
sg109
I01
sg23
I00
sbsg2250
g0
(g305
g2
Ntp2606
Rp2607
(dp2608
g21
I00
sg109
I01
sg23
I00
sg110
I206
sbsg2251
g0
(g305
g2
Ntp2609
Rp2610
(dp2611
g21
I00
sg109
I01
sg23
I00
sg110
I208
sbsg2252
g0
(g105
g2
Ntp2612
Rp2613
(dp2614
g21
I00
sg109
I01
sg23
I00
sg110
F40.0
sbsg2253
g0
(g144
g145
(lp2615
F0.01
aF0.015
atp2616
Rp2617
(dp2618
g21
I00
sg109
I01
sg23
I00
sbsg2254
g0
(g144
g145
(lp2619
F0.26
aF0.254
atp2620
Rp2621
(dp2622
g21
I00
sg109
I01
sg23
I00
sbsg2255
g0
(g105
g2
Ntp2623
Rp2624
(dp2625
g21
I00
sg109
I01
sg23
I00
sg110
F0.0
sbsg2256
g0
(g105
g2
Ntp2626
Rp2627
(dp2628
g21
I00
sg109
I01
sg23
I00
sg110
F0.1
sbsg2257
g0
(g184
g2
Ntp2629
Rp2630
(dp2631
g21
I00
sg109
I01
sg23
I00
sg110
I01
sbsg2490
g0
(g1015
g2
Ntp2632
Rp2633
(dp2634
g21
I00
sg109
I01
sg23
I00
sg19
(lp2635
g2549
ag2550
ag2551
ag2552
ag2553
ag2554
asg22
Nsg2549
g0
(g105
g2
Ntp2636
Rp2637
(dp2638
g21
I00
sg109
I01
sg23
I00
sg110
I20
sbsg2550
g0
(g105
g2
Ntp2639
Rp2640
(dp2641
g21
I00
sg109
I01
sg23
I00
sg110
I5
sbsg2551
g0
(g105
g2
Ntp2642
Rp2643
(dp2644
g21
I00
sg109
I01
sg23
I00
sg110
I75
sbsg2552
g0
(g105
g2
Ntp2645
Rp2646
(dp2647
g21
I00
sg109
I01
sg23
I00
sg110
F0.0631
sbsg2553
g0
(g105
g2
Ntp2648
Rp2649
(dp2650
g21
I00
sg109
I01
sg23
I00
sg110
F29200000.0
sbsg2554
g0
(g144
g145
(lp2651
F5.543e-10
aF8.012e-10
atp2652
Rp2653
(dp2654
g21
I00
sg109
I01
sg23
I00
sbsbsbsg2151
g0
(g1015
g2
Ntp2655
Rp2656
(dp2657
g21
I00
sg109
I01
sg23
I00
sg19
(lp2658
g2242
ag2243
ag2244
ag2245
ag2246
ag2247
ag2248
ag2249
ag2250
ag2251
ag2252
ag2253
ag2254
ag2255
ag2256
ag2257
asg22
Nsg2242
g0
(g105
g2
Ntp2659
Rp2660
(dp2661
g21
I00
sg109
I01
sg23
I00
sg110
F13.33
sbsg2243
g0
(g105
g2
Ntp2662
Rp2663
(dp2664
g21
I00
sg109
I01
sg23
I00
sg110
F3.33
sbsg2244
g0
(g144
g145
(lp2665
F0.14
aF0.135
atp2666
Rp2667
(dp2668
g21
I00
sg109
I01
sg23
I00
sbsg2245
g0
(g144
g145
(lp2669
F0.0
aF0.0
atp2670
Rp2671
(dp2672
g21
I00
sg109
I01
sg23
I00
sbsg2246
g0
(g305
g2
Ntp2673
Rp2674
(dp2675
g21
I00
sg109
I01
sg23
I00
sg110
I-9999
sbsg2247
g0
(g305
g2
Ntp2676
Rp2677
(dp2678
g21
I00
sg109
I01
sg23
I00
sg110
I1
sbsg2248
g0
(g144
g145
(lp2679
F0.0697
aF-0.7405
aF12.38
aF-671.9
atp2680
Rp2681
(dp2682
g21
I00
sg109
I01
sg23
I00
sbsg2249
g0
(g144
g145
(lp2683
F0.297
aF0.298
aF0.298
aF0.313
atp2684
Rp2685
(dp2686
g21
I00
sg109
I01
sg23
I00
sbsg2250
g0
(g305
g2
Ntp2687
Rp2688
(dp2689
g21
I00
sg109
I01
sg23
I00
sg110
I301
sbsg2251
g0
(g305
g2
Ntp2690
Rp2691
(dp2692
g21
I00
sg109
I01
sg23
I00
sg110
I301
sbsg2252
g0
(g105
g2
Ntp2693
Rp2694
(dp2695
g21
I00
sg109
I01
sg23
I00
sg110
F0.0
sbsg2253
g0
(g144
g145
(lp2696
F0.0
atp2697
Rp2698
(dp2699
g21
I00
sg109
I01
sg23
I00
sbsg2254
g0
(g144
g145
(lp2700
F0.0
atp2701
Rp2702
(dp2703
g21
I00
sg109
I01
sg23
I00
sbsg2255
g0
(g105
g2
Ntp2704
Rp2705
(dp2706
g21
I00
sg109
I01
sg23
I00
sg110
F0.0
sbsg2256
g0
(g105
g2
Ntp2707
Rp2708
(dp2709
g21
I00
sg109
I01
sg23
I00
sg110
F0.1
sbsg2257
g0
(g184
g2
Ntp2710
Rp2711
(dp2712
g21
I00
sg109
I01
sg23
I00
sg110
I00
sbsbsg2152
g0
(g1923
g145
(lp2713
g0
(g1015
g2
Ntp2714
Rp2715
(dp2716
g21
I00
sg109
I01
sg23
I00
sg19
(lp2717
Vpixels
p2718
aVcrosstalk
p2719
aVnonlin1
p2720
aVnonlin2
p2721
aVnonlin3
p2722
asg22
Nsg2718
g0
(g305
g2
Ntp2723
Rp2724
(dp2725
g21
I00
sg109
I01
sg23
I00
sg110
I36000
sbsg2719
g0
(g105
g2
Ntp2726
Rp2727
(dp2728
g21
I00
sg109
I01
sg23
I00
sg110
F0.0
sbsg2720
g0
(g105
g2
Ntp2729
Rp2730
(dp2731
g21
I00
sg109
I01
sg23
I00
sg110
F1.0
sbsg2721
g0
(g105
g2
Ntp2732
Rp2733
(dp2734
g21
I00
sg109
I01
sg23
I00
sg110
F0.0
sbsg2722
g0
(g105
g2
Ntp2735
Rp2736
(dp2737
g21
I00
sg109
I01
sg23
I00
sg110
F0.0
sbsbag0
(g1015
g2
Ntp2738
Rp2739
(dp2740
g21
I00
sg109
I01
sg23
I00
sg19
(lp2741
g2718
ag2719
ag2720
ag2721
ag2722
asg22
Nsg2718
g0
(g305
g2
Ntp2742
Rp2743
(dp2744
g21
I00
sg109
I01
sg23
I00
sg110
I2500
sbsg2719
g0
(g105
g2
Ntp2745
Rp2746
(dp2747
g21
I00
sg109
I01
sg23
I00
sg110
F0.0
sbsg2720
g0
(g105
g2
Ntp2748
Rp2749
(dp2750
g21
I00
sg109
I01
sg23
I00
sg110
F1.0
sbsg2721
g0
(g105
g2
Ntp2751
Rp2752
(dp2753
g21
I00
sg109
I01
sg23
I00
sg110
F0.0
sbsg2722
g0
(g105
g2
Ntp2754
Rp2755
(dp2756
g21
I00
sg109
I01
sg23
I00
sg110
F0.0
sbsbag0
(g1015
g2
Ntp2757
Rp2758
(dp2759
g21
I00
sg109
I01
sg23
I00
sg19
(lp2760
g2718
ag2719
ag2720
ag2721
ag2722
asg22
Nsg2718
g0
(g305
g2
Ntp2761
Rp2762
(dp2763
g21
I00
sg109
I01
sg23
I00
sg110
I27370
sbsg2719
g0
(g105
g2
Ntp2764
Rp2765
(dp2766
g21
I00
sg109
I01
sg23
I00
sg110
F0.17
sbsg2720
g0
(g105
g2
Ntp2767
Rp2768
(dp2769
g21
I00
sg109
I01
sg23
I00
sg110
F1.00985
sbsg2721
g0
(g105
g2
Ntp2770
Rp2771
(dp2772
g21
I00
sg109
I01
sg23
I00
sg110
F7.84089e-06
sbsg2722
g0
(g105
g2
Ntp2773
Rp2774
(dp2775
g21
I00
sg109
I01
sg23
I00
sg110
F2.86282e-10
sbsbag0
(g1015
g2
Ntp2776
Rp2777
(dp2778
g21
I00
sg109
I01
sg23
I00
sg19
(lp2779
g2718
ag2719
ag2720
ag2721
ag2722
asg22
Nsg2718
g0
(g305
g2
Ntp2780
Rp2781
(dp2782
g21
I00
sg109
I01
sg23
I00
sg110
I38018
sbsg2719
g0
(g105
g2
Ntp2783
Rp2784
(dp2785
g21
I00
sg109
I01
sg23
I00
sg110
F0.196
sbsg2720
g0
(g105
g2
Ntp2786
Rp2787
(dp2788
g21
I00
sg109
I01
sg23
I00
sg110
F1.00546
sbsg2721
g0
(g105
g2
Ntp2789
Rp2790
(dp2791
g21
I00
sg109
I01
sg23
I00
sg110
F6.40239e-06
sbsg2722
g0
(g105
g2
Ntp2792
Rp2793
(dp2794
g21
I00
sg109
I01
sg23
I00
sg110
F1.27011e-10
sbsbag0
(g1015
g2
Ntp2795
Rp2796
(dp2797
g21
I00
sg109
I01
sg23
I00
sg19
(lp2798
g2718
ag2719
ag2720
ag2721
ag2722
asg22
Nsg2718
g0
(g305
g2
Ntp2799
Rp2800
(dp2801
g21
I00
sg109
I01
sg23
I00
sg110
I27370
sbsg2719
g0
(g105
g2
Ntp2802
Rp2803
(dp2804
g21
I00
sg109
I01
sg23
I00
sg110
F0.17
sbsg2720
g0
(g105
g2
Ntp2805
Rp2806
(dp2807
g21
I00
sg109
I01
sg23
I00
sg110
F1.00985
sbsg2721
g0
(g105
g2
Ntp2808
Rp2809
(dp2810
g21
I00
sg109
I01
sg23
I00
sg110
F7.84089e-06
sbsg2722
g0
(g105
g2
Ntp2811
Rp2812
(dp2813
g21
I00
sg109
I01
sg23
I00
sg110
F2.86282e-10
sbsbag0
(g1015
g2
Ntp2814
Rp2815
(dp2816
g21
I00
sg109
I01
sg23
I00
sg19
(lp2817
g2718
ag2719
ag2720
ag2721
ag2722
asg22
Nsg2718
g0
(g305
g2
Ntp2818
Rp2819
(dp2820
g21
I00
sg109
I01
sg23
I00
sg110
I38018
sbsg2719
g0
(g105
g2
Ntp2821
Rp2822
(dp2823
g21
I00
sg109
I01
sg23
I00
sg110
F0.196
sbsg2720
g0
(g105
g2
Ntp2824
Rp2825
(dp2826
g21
I00
sg109
I01
sg23
I00
sg110
F1.00546
sbsg2721
g0
(g105
g2
Ntp2827
Rp2828
(dp2829
g21
I00
sg109
I01
sg23
I00
sg110
F6.40239e-06
sbsg2722
g0
(g105
g2
Ntp2830
Rp2831
(dp2832
g21
I00
sg109
I01
sg23
I00
sg110
F1.27011e-10
sbsbag0
(g1015
g2
Ntp2833
Rp2834
(dp2835
g21
I00
sg109
I01
sg23
I00
sg19
(lp2836
g2718
ag2719
ag2720
ag2721
ag2722
asg22
Nsg2718
g0
(g305
g2
Ntp2837
Rp2838
(dp2839
g21
I00
sg109
I01
sg23
I00
sg110
I0
sbsg2719
g0
(g105
g2
Ntp2840
Rp2841
(dp2842
g21
I00
sg109
I01
sg23
I00
sg110
F0.0
sbsg2720
g0
(g105
g2
Ntp2843
Rp2844
(dp2845
g21
I00
sg109
I01
sg23
I00
sg110
F1.0
sbsg2721
g0
(g105
g2
Ntp2846
Rp2847
(dp2848
g21
I00
sg109
I01
sg23
I00
sg110
F0.0
sbsg2722
g0
(g105
g2
Ntp2849
Rp2850
(dp2851
g21
I00
sg109
I01
sg23
I00
sg110
F0.0
sbsbatp2852
Rp2853
(dp2854
g21
I00
sg109
I01
sg23
I00
sg333
I1
sbsg24
V/cvmfs/cms-ib.cern.ch/sw/x86_64/week1/el8_amd64_gcc12/cms/cmssw/CMSSW_14_1_X_2024-06-09-2300/src/CalibCalorimetry/HcalPlugins/python/Hcal_Conditions_forGlobalTag_cff.py
p2855
sg26
I16
sg27
g2120
sbssV_Process__esproducers
p2856
(dp2857
VCSCGeometryESModule
p2858
g0
(cFWCore.ParameterSet.Modules
ESProducer
p2859
g2
Ntp2860
Rp2861
(dp2862
g17
g2858
sg19
(lp2863
VfromDDD
p2864
aVfromDD4hep
p2865
aValignmentsLabel
p2866
ag1955
aVuseRealWireGeometry
p2867
aVuseOnlyWiresInME1a
p2868
aVuseGangedStripsInME1a
p2869
aVuseCentreTIOffsets
p2870
aVapplyAlignment
p2871
aVdebugV
p2872
asg21
I00
sg22
Nsg2864
g0
(g184
g2
Ntp2873
Rp2874
(dp2875
g21
I00
sg109
I01
sg23
I00
sg110
I00
sbsg23
I01
sg2865
g0
(g184
g2
Ntp2876
Rp2877
(dp2878
g21
I00
sg109
I01
sg23
I00
sg110
I00
sbsg2866
g0
(g715
g2
Ntp2879
Rp2880
(dp2881
g21
I00
sg109
I01
sg23
I00
sg110
g124
sbsg1955
g0
(g715
g2
Ntp2882
Rp2883
(dp2884
g21
I00
sg109
I01
sg23
I00
sg110
g124
sbsg2867
g0
(g184
g2
Ntp2885
Rp2886
(dp2887
g21
I00
sg109
I01
sg23
I00
sg110
I01
sbsg2868
g0
(g184
g2
Ntp2888
Rp2889
(dp2890
g21
I00
sg109
I01
sg23
I00
sg110
I00
sbsg2869
g0
(g184
g2
Ntp2891
Rp2892
(dp2893
g21
I00
sg109
I01
sg23
I01
sg110
I00
sbsg2870
g0
(g184
g2
Ntp2894
Rp2895
(dp2896
g21
I00
sg109
I01
sg23
I00
sg110
I00
sbsg2871
g0
(g184
g2
Ntp2897
Rp2898
(dp2899
g21
I00
sg109
I01
sg23
I00
sg110
I01
sbsg2872
g0
(g184
g2
Ntp2900
Rp2901
(dp2902
g21
I00
sg109
I00
sg23
I00
sg110
I00
sbsg24
g629
sg26
I55
sg27
g2858
sbsVCaloGeometryBuilder
p2903
g0
(g2859
g2
Ntp2904
Rp2905
(dp2906
g17
g2903
sg19
(lp2907
VSelectedCalos
p2908
asg21
I00
sg22
Nsg2908
g0
(g325
g145
(lp2909
VHCAL
p2910
aVZDC
p2911
aVEcalBarrel
p2912
aVEcalEndcap
p2913
aVEcalPreshower
p2914
aVTOWER
p2915
atp2916
Rp2917
(dp2918
g21
I00
sg109
I01
sg23
I01
sg333
I1
sbsg23
I01
sg24
g629
sg26
I55
sg27
g2903
sbsVCaloTopologyBuilder
p2919
g0
(g2859
g2
Ntp2920
Rp2921
(dp2922
g17
g2919
sg19
(lp2923
sg21
I00
sg22
Nsg23
I00
sg24
g629
sg26
I55
sg27
g2919
sbsVCaloTowerGeometryFromDBEP
p2924
g0
(g2859
g2
Ntp2925
Rp2926
(dp2927
g17
g2924
sg19
(lp2928
g2871
asg21
I00
sg22
Nsg2871
g0
(g184
g2
Ntp2929
Rp2930
(dp2931
g21
I00
sg109
I01
sg23
I00
sg110
I00
sbsg23
I00
sg24
g629
sg26
I55
sg27
g2924
sbsVCaloTowerTopologyEP
p2932
g0
(g2859
g2
Ntp2933
Rp2934
(dp2935
g17
g2932
sg19
(lp2936
sg21
I00
sg22
Nsg23
I00
sg24
g629
sg26
I55
sg27
g2932
sbsVCastorGeometryFromDBEP
p2937
g0
(g2859
g2
Ntp2938
Rp2939
(dp2940
g17
g2937
sg19
(lp2941
g2871
asg21
I00
sg22
Nsg2871
g0
(g184
g2
Ntp2942
Rp2943
(dp2944
g21
I00
sg109
I01
sg23
I00
sg110
I00
sbsg23
I00
sg24
g629
sg26
I55
sg27
g2937
sbsVDTGeometryESModule
p2945
g0
(g2859
g2
Ntp2946
Rp2947
(dp2948
g17
g2945
sg19
(lp2949
g2864
ag2865
aVDDDetector
p2950
ag2866
ag1955
aVattribute
p2951
aVvalue
p2952
ag2871
asg21
I00
sg22
Nsg2864
g0
(g184
g2
Ntp2953
Rp2954
(dp2955
g21
I00
sg109
I01
sg23
I01
sg110
I00
sbsg23
I01
sg2865
g0
(g184
g2
Ntp2956
Rp2957
(dp2958
g21
I00
sg109
I01
sg23
I00
sg110
I00
sbsg2950
g0
(cFWCore.ParameterSet.Types
ESInputTag
p2959
g2
Ntp2960
Rp2961
(dp2962
g21
I00
sg109
I01
sg23
I00
sV_ESInputTag__moduleLabel
p2963
g124
sV_ESInputTag__data
p2964
g124
sbsg2866
g0
(g715
g2
Ntp2965
Rp2966
(dp2967
g21
I00
sg109
I01
sg23
I00
sg110
g124
sbsg1955
g0
(g715
g2
Ntp2968
Rp2969
(dp2970
g21
I00
sg109
I01
sg23
I00
sg110
g124
sbsg2951
g0
(g715
g2
Ntp2971
Rp2972
(dp2973
g21
I00
sg109
I01
sg23
I00
sg110
VMuStructure
p2974
sbsg2952
g0
(g715
g2
Ntp2975
Rp2976
(dp2977
g21
I00
sg109
I01
sg23
I00
sg110
VMuonBarrelDT
p2978
sbsg2871
g0
(g184
g2
Ntp2979
Rp2980
(dp2981
g21
I00
sg109
I01
sg23
I00
sg110
I01
sbsg24
g629
sg26
I55
sg27
g2945
sbsVEcalBarrelGeometryFromDBEP
p2982
g0
(g2859
g2
Ntp2983
Rp2984
(dp2985
g17
g2982
sg19
(lp2986
g2871
asg21
I00
sg22
Nsg2871
g0
(g184
g2
Ntp2987
Rp2988
(dp2989
g21
I00
sg109
I01
sg23
I01
sg110
I01
sbsg23
I01
sg24
g629
sg26
I55
sg27
g2982
sbsVEcalElectronicsMappingBuilder
p2990
g0
(g2859
g2
Ntp2991
Rp2992
(dp2993
g17
g2990
sg19
(lp2994
sg21
I00
sg22
Nsg23
I00
sg24
g629
sg26
I55
sg27
g2990
sbsVEcalEndcapGeometryFromDBEP
p2995
g0
(g2859
g2
Ntp2996
Rp2997
(dp2998
g17
g2995
sg19
(lp2999
g2871
asg21
I00
sg22
Nsg2871
g0
(g184
g2
Ntp3000
Rp3001
(dp3002
g21
I00
sg109
I01
sg23
I01
sg110
I01
sbsg23
I01
sg24
g629
sg26
I55
sg27
g2995
sbsVEcalPreshowerGeometryFromDBEP
p3003
g0
(g2859
g2
Ntp3004
Rp3005
(dp3006
g17
g3003
sg19
(lp3007
g2871
asg21
I00
sg22
Nsg2871
g0
(g184
g2
Ntp3008
Rp3009
(dp3010
g21
I00
sg109
I01
sg23
I01
sg110
I01
sbsg23
I01
sg24
g629
sg26
I55
sg27
g3003
sbsVEcalTrigTowerConstituentsMapBuilder
p3011
g0
(g2859
g2
Ntp3012
Rp3013
(dp3014
g17
g3011
sg19
(lp3015
VMapFile
p3016
asg21
I00
sg22
Nsg3016
g0
(g715
g2
Ntp3017
Rp3018
(dp3019
g21
I00
sg109
I00
sg23
I00
sg110
VGeometry/EcalMapping/data/EndCap_TTMap.txt
p3020
sbsg23
I00
sg24
g629
sg26
I55
sg27
g3011
sbsVGlobalTrackingGeometryESProducer
p3021
g0
(g2859
g2
Ntp3022
Rp3023
(dp3024
g17
g3021
sg19
(lp3025
sg21
I00
sg22
Nsg23
I00
sg24
g629
sg26
I55
sg27
g3021
sbsVHcalAlignmentEP
p3026
g0
(g2859
g2
Ntp3027
Rp3028
(dp3029
g17
g3026
sg19
(lp3030
sg21
I00
sg22
Nsg23
I00
sg24
g629
sg26
I55
sg27
g3026
sbsVHcalGeometryFromDBEP
p3031
g0
(g2859
g2
Ntp3032
Rp3033
(dp3034
g17
g3031
sg19
(lp3035
g2871
asg21
I00
sg22
Nsg2871
g0
(g184
g2
Ntp3036
Rp3037
(dp3038
g21
I00
sg109
I01
sg23
I01
sg110
I01
sbsg23
I01
sg24
g629
sg26
I55
sg27
g3031
sbsVMuonDetLayerGeometryESProducer
p3039
g0
(g2859
g2
Ntp3040
Rp3041
(dp3042
g17
g3039
sg19
(lp3043
sg21
I00
sg22
Nsg23
I00
sg24
g629
sg26
I55
sg27
g3039
sbsVRPCGeometryESModule
p3044
g0
(g2859
g2
Ntp3045
Rp3046
(dp3047
g17
g3044
sg19
(lp3048
g2864
ag2865
asg21
I00
sg22
Nsg2864
g0
(g184
g2
Ntp3049
Rp3050
(dp3051
g21
I00
sg109
I00
sg23
I00
sg110
I00
sbsg23
I00
sg2865
g0
(g184
g2
Ntp3052
Rp3053
(dp3054
g21
I00
sg109
I00
sg23
I00
sg110
I00
sbsg24
g629
sg26
I55
sg27
g3044
sbsVTrackerAdditionalParametersPerDet
p3055
g0
(g2859
g2
Ntp3056
Rp3057
(dp3058
g17
VTrackerAdditionalParametersPerDetESModule
p3059
sg19
(lp3060
g1955
asg21
I00
sg22
Nsg1955
g0
(g715
g2
Ntp3061
Rp3062
(dp3063
g21
I00
sg109
I01
sg23
I00
sg110
g124
sbsg23
I00
sg24
g629
sg26
I55
sg27
g3055
sbsVTrackerRecoGeometryESProducer
p3064
g0
(g2859
g2
Ntp3065
Rp3066
(dp3067
g17
g3064
sg19
(lp3068
VusePhase2Stacks
p3069
asg21
I00
sg22
Nsg3069
g0
(g184
g2
Ntp3070
Rp3071
(dp3072
g21
I00
sg109
I01
sg23
I00
sg110
I00
sbsg23
I00
sg24
g629
sg26
I55
sg27
g3064
sbsVZdcGeometryFromDBEP
p3073
g0
(g2859
g2
Ntp3074
Rp3075
(dp3076
g17
g3073
sg19
(lp3077
g2871
asg21
I00
sg22
Nsg2871
g0
(g184
g2
Ntp3078
Rp3079
(dp3080
g21
I00
sg109
I01
sg23
I00
sg110
I00
sbsg23
I00
sg24
g629
sg26
I55
sg27
g3073
sbsVfakeForIdealAlignment
p3081
g0
(g2859
g2
Ntp3082
Rp3083
(dp3084
g17
VFakeAlignmentProducer
p3085
sg19
(lp3086
g1955
asg21
I00
sg22
Nsg1955
g0
(g715
g2
Ntp3087
Rp3088
(dp3089
g21
I00
sg109
I01
sg23
I01
sg110
VfakeForIdeal
p3090
sbsg23
I01
sg24
V/cvmfs/cms-ib.cern.ch/sw/x86_64/week1/el8_amd64_gcc12/cms/cmssw/CMSSW_14_1_X_2024-06-09-2300/src/Alignment/CommonAlignmentProducer/python/fakeForIdealAlignmentProducer_cfi.py
p3091
sg26
I5
sg27
g3081
sbsVhcalDDDRecConstants
p3092
g0
(g2859
g2
Ntp3093
Rp3094
(dp3095
g17
VHcalDDDRecConstantsESModule
p3096
sg19
(lp3097
g1955
asg21
I00
sg22
Nsg1955
g0
(g715
g2
Ntp3098
Rp3099
(dp3100
g21
I00
sg109
I01
sg23
I00
sg110
g124
sbsg23
I00
sg24
g629
sg26
I55
sg27
g3092
sbsVhcalDDDSimConstants
p3101
g0
(g2859
g2
Ntp3102
Rp3103
(dp3104
g17
VHcalDDDSimConstantsESModule
p3105
sg19
(lp3106
g1955
asg21
I00
sg22
Nsg1955
g0
(g715
g2
Ntp3107
Rp3108
(dp3109
g21
I00
sg109
I01
sg23
I00
sg110
g124
sbsg23
I00
sg24
g629
sg26
I55
sg27
g3101
sbsVhcalTopologyIdeal
p3110
g0
(g2859
g2
Ntp3111
Rp3112
(dp3113
g17
VHcalTopologyIdealEP
p3114
sg19
(lp3115
VExclude
p3116
aVMergePosition
p3117
ag1955
asg21
I00
sg22
Nsg3116
g0
(g715
g2
Ntp3118
Rp3119
(dp3120
g21
I00
sg109
I00
sg23
I00
sg110
g124
sbsg23
I00
sg3117
g0
(g184
g2
Ntp3121
Rp3122
(dp3123
g21
I00
sg109
I00
sg23
I00
sg110
I00
sbsg1955
g0
(g715
g2
Ntp3124
Rp3125
(dp3126
g21
I00
sg109
I01
sg23
I00
sg110
g124
sbsg24
g629
sg26
I55
sg27
g3110
sbsVidealForDigiCSCGeometry
p3127
g0
(g2859
g2
Ntp3128
Rp3129
(dp3130
g17
g2858
sg19
(lp3131
g2864
ag2865
ag2866
ag1955
ag2867
ag2868
ag2869
ag2870
ag2871
ag2872
asg21
I00
sg22
Nsg2864
g0
(g184
g2
Ntp3132
Rp3133
(dp3134
g21
I00
sg109
I01
sg23
I00
sg110
I00
sbsg23
I01
sg2865
g0
(g184
g2
Ntp3135
Rp3136
(dp3137
g21
I00
sg109
I01
sg23
I00
sg110
I00
sbsg2866
g0
(g715
g2
Ntp3138
Rp3139
(dp3140
g21
I00
sg109
I01
sg23
I01
sg110
g3090
sbsg1955
g0
(g715
g2
Ntp3141
Rp3142
(dp3143
g21
I00
sg109
I01
sg23
I01
sg110
VidealForDigi
p3144
sbsg2867
g0
(g184
g2
Ntp3145
Rp3146
(dp3147
g21
I00
sg109
I01
sg23
I00
sg110
I01
sbsg2868
g0
(g184
g2
Ntp3148
Rp3149
(dp3150
g21
I00
sg109
I01
sg23
I00
sg110
I00
sbsg2869
g0
(g184
g2
Ntp3151
Rp3152
(dp3153
g21
I00
sg109
I01
sg23
I01
sg110
I00
sbsg2870
g0
(g184
g2
Ntp3154
Rp3155
(dp3156
g21
I00
sg109
I01
sg23
I00
sg110
I00
sbsg2871
g0
(g184
g2
Ntp3157
Rp3158
(dp3159
g21
I00
sg109
I01
sg23
I01
sg110
I00
sbsg2872
g0
(g184
g2
Ntp3160
Rp3161
(dp3162
g21
I00
sg109
I00
sg23
I00
sg110
I00
sbsg24
V/cvmfs/cms-ib.cern.ch/sw/x86_64/week1/el8_amd64_gcc12/cms/cmssw/CMSSW_14_1_X_2024-06-09-2300/src/Geometry/CSCGeometryBuilder/python/idealForDigiCscGeometryDB_cff.py
p3163
sg26
I8
sg27
g3127
sbsVidealForDigiDTGeometry
p3164
g0
(g2859
g2
Ntp3165
Rp3166
(dp3167
g17
g2945
sg19
(lp3168
g2864
ag2865
ag2950
ag2866
ag1955
ag2951
ag2952
ag2871
asg21
I00
sg22
Nsg2864
g0
(g184
g2
Ntp3169
Rp3170
(dp3171
g21
I00
sg109
I01
sg23
I01
sg110
I00
sbsg23
I01
sg2865
g0
(g184
g2
Ntp3172
Rp3173
(dp3174
g21
I00
sg109
I01
sg23
I00
sg110
I00
sbsg2950
g0
(g2959
g2
Ntp3175
Rp3176
(dp3177
g21
I00
sg109
I01
sg23
I00
sg2963
g124
sg2964
g124
sbsg2866
g0
(g715
g2
Ntp3178
Rp3179
(dp3180
g21
I00
sg109
I01
sg23
I01
sg110
g3090
sbsg1955
g0
(g715
g2
Ntp3181
Rp3182
(dp3183
g21
I00
sg109
I01
sg23
I01
sg110
g3144
sbsg2951
g0
(g715
g2
Ntp3184
Rp3185
(dp3186
g21
I00
sg109
I01
sg23
I00
sg110
g2974
sbsg2952
g0
(g715
g2
Ntp3187
Rp3188
(dp3189
g21
I00
sg109
I01
sg23
I00
sg110
g2978
sbsg2871
g0
(g184
g2
Ntp3190
Rp3191
(dp3192
g21
I00
sg109
I01
sg23
I01
sg110
I00
sbsg24
V/cvmfs/cms-ib.cern.ch/sw/x86_64/week1/el8_amd64_gcc12/cms/cmssw/CMSSW_14_1_X_2024-06-09-2300/src/Geometry/DTGeometryBuilder/python/idealForDigiDtGeometryDB_cff.py
p3193
sg26
I8
sg27
g3164
sbsVidealForDigiTrackerGeometry
p3194
g0
(g2859
g2
Ntp3195
Rp3196
(dp3197
g17
VTrackerDigiGeometryESModule
p3198
sg19
(lp3199
g1955
ag2864
ag2871
ag2866
asg21
I00
sg22
Nsg1955
g0
(g715
g2
Ntp3200
Rp3201
(dp3202
g21
I00
sg109
I01
sg23
I01
sg110
g3144
sbsg23
I01
sg2864
g0
(g184
g2
Ntp3203
Rp3204
(dp3205
g21
I00
sg109
I01
sg23
I00
sg110
I00
sbsg2871
g0
(g184
g2
Ntp3206
Rp3207
(dp3208
g21
I00
sg109
I01
sg23
I01
sg110
I00
sbsg2866
g0
(g715
g2
Ntp3209
Rp3210
(dp3211
g21
I00
sg109
I01
sg23
I01
sg110
g3090
sbsg24
V/cvmfs/cms-ib.cern.ch/sw/x86_64/week1/el8_amd64_gcc12/cms/cmssw/CMSSW_14_1_X_2024-06-09-2300/src/Geometry/TrackerGeometryBuilder/python/idealForDigiTrackerGeometryDB_cff.py
p3212
sg26
I8
sg27
g3194
sbsVmuonGeometryConstants
p3213
g0
(g2859
g2
Ntp3214
Rp3215
(dp3216
g17
VMuonGeometryConstantsESModule
p3217
sg19
(lp3218
g2865
ag1955
asg21
I00
sg22
Nsg2865
g0
(g184
g2
Ntp3219
Rp3220
(dp3221
g21
I00
sg109
I01
sg23
I00
sg110
I01
sbsg23
I01
sg1955
g0
(g715
g2
Ntp3222
Rp3223
(dp3224
g21
I00
sg109
I01
sg23
I00
sg110
g124
sbsg24
g629
sg26
I55
sg27
g3213
sbsVtrackerGeometryDB
p3225
g0
(g2859
g2
Ntp3226
Rp3227
(dp3228
g17
g3198
sg19
(lp3229
g1955
ag2864
ag2871
ag2866
asg21
I00
sg22
Nsg1955
g0
(g715
g2
Ntp3230
Rp3231
(dp3232
g21
I00
sg109
I01
sg23
I00
sg110
g124
sbsg23
I00
sg2864
g0
(g184
g2
Ntp3233
Rp3234
(dp3235
g21
I00
sg109
I01
sg23
I00
sg110
I00
sbsg2871
g0
(g184
g2
Ntp3236
Rp3237
(dp3238
g21
I00
sg109
I01
sg23
I00
sg110
I01
sbsg2866
g0
(g715
g2
Ntp3239
Rp3240
(dp3241
g21
I00
sg109
I01
sg23
I00
sg110
g124
sbsg24
g629
sg26
I55
sg27
g3225
sbsVtrackerNumberingGeometryDB
p3242
g0
(g2859
g2
Ntp3243
Rp3244
(dp3245
g17
VTrackerGeometricDetESModule
p3246
sg19
(lp3247
g2864
ag2865
ag1955
asg21
I00
sg22
Nsg2864
g0
(g184
g2
Ntp3248
Rp3249
(dp3250
g21
I00
sg109
I01
sg23
I00
sg110
I00
sbsg23
I00
sg2865
g0
(g184
g2
Ntp3251
Rp3252
(dp3253
g21
I00
sg109
I01
sg23
I00
sg110
I00
sbsg1955
g0
(g715
g2
Ntp3254
Rp3255
(dp3256
g21
I00
sg109
I01
sg23
I00
sg110
g124
sbsg24
g629
sg26
I55
sg27
g3242
sbsVtrackerTopology
p3257
g0
(g2859
g2
Ntp3258
Rp3259
(dp3260
g17
VTrackerTopologyEP
p3261
sg19
(lp3262
g1955
asg21
I00
sg22
Nsg1955
g0
(g715
g2
Ntp3263
Rp3264
(dp3265
g21
I00
sg109
I01
sg23
I00
sg110
g124
sbsg23
I00
sg24
g629
sg26
I55
sg27
g3257
sbsVGEMGeometryESModule
p3266
g0
(g2859
g2
Ntp3267
Rp3268
(dp3269
g17
g3266
sg19
(lp3270
g2864
ag2865
ag1955
ag2866
ag2871
asg21
I00
sg22
Nsg2864
g0
(g184
g2
Ntp3271
Rp3272
(dp3273
g21
I00
sg109
I01
sg23
I00
sg110
I00
sbsg23
I01
sg2865
g0
(g184
g2
Ntp3274
Rp3275
(dp3276
g21
I00
sg109
I01
sg23
I00
sg110
I00
sbsg1955
g0
(g715
g2
Ntp3277
Rp3278
(dp3279
g21
I00
sg109
I01
sg23
I00
sg110
g124
sbsg2866
g0
(g715
g2
Ntp3280
Rp3281
(dp3282
g21
I00
sg109
I01
sg23
I00
sg110
g124
sbsg2871
g0
(g184
g2
Ntp3283
Rp3284
(dp3285
g21
I00
sg109
I01
sg23
I01
sg110
I01
sbsg24
g629
sg26
I55
sg27
g3266
sbsVParabolicParametrizedMagneticFieldProducer
p3286
g0
(g2859
g2
Ntp3287
Rp3288
(dp3289
g17
VAutoParametrizedMagneticFieldProducer
p3290
sg19
(lp3291
Vversion
p3292
aVlabel
p3293
aVvalueOverride
p3294
asg21
I00
sg22
Nsg3292
g0
(g715
g2
Ntp3295
Rp3296
(dp3297
g21
I00
sg109
I01
sg23
I00
sg110
VParabolic
p3298
sbsg23
I01
sg3293
g0
(g715
g2
Ntp3299
Rp3300
(dp3301
g21
I00
sg109
I00
sg23
I01
sg110
VParabolicMf
p3302
sbsg3294
g0
(g305
g2
Ntp3303
Rp3304
(dp3305
g21
I00
sg109
I01
sg23
I00
sg110
I-1
sbsg24
g629
sg26
I55
sg27
g3286
sbsVVolumeBasedMagneticFieldESProducer
p3306
g0
(g2859
g2
Ntp3307
Rp3308
(dp3309
g17
VDD4hep_VolumeBasedMagneticFieldESProducerFromDB
p3310
sg19
(lp3311
g3293
aVdebugBuilder
p3312
ag3294
asg21
I00
sg22
Nsg23
I01
sg24
g629
sg26
I55
sg3293
g0
(g715
g2
Ntp3313
Rp3314
(dp3315
g21
I00
sg109
I00
sg23
I00
sg110
g124
sbsg3312
g0
(g184
g2
Ntp3316
Rp3317
(dp3318
g21
I00
sg109
I00
sg23
I00
sg110
I00
sbsg3294
g0
(g305
g2
Ntp3319
Rp3320
(dp3321
g21
I00
sg109
I01
sg23
I00
sg110
I-1
sbsg27
g3306
sbsVecalSeverityLevel
p3322
g0
(g2859
g2
Ntp3323
Rp3324
(dp3325
g17
VEcalSeverityLevelESProducer
p3326
sg19
(lp3327
VflagMask
p3328
aVdbstatusMask
p3329
aVtimeThresh
p3330
asg21
I00
sg22
Nsg3328
g0
(g1015
g2
Ntp3331
Rp3332
(dp3333
g21
I00
sg109
I01
sg23
I00
sg19
(lp3334
VkGood
p3335
aVkProblematic
p3336
aVkRecovered
p3337
ag327
ag328
ag329
asg22
Nsg3335
g0
(g325
g145
(lp3338
g3335
atp3339
Rp3340
(dp3341
g21
I00
sg109
I01
sg23
I00
sg333
I1
sbsg3336
g0
(g325
g145
(lp3342
VkPoorReco
p3343
aVkPoorCalib
p3344
aVkNoisy
p3345
aVkSaturated
p3346
atp3347
Rp3348
(dp3349
g21
I00
sg109
I01
sg23
I00
sg333
I1
sbsg3337
g0
(g325
g145
(lp3350
VkLeadingEdgeRecovered
p3351
aVkTowerRecovered
p3352
atp3353
Rp3354
(dp3355
g21
I00
sg109
I01
sg23
I00
sg333
I1
sbsg327
g0
(g325
g145
(lp3356
VkOutOfTime
p3357
atp3358
Rp3359
(dp3360
g21
I00
sg109
I01
sg23
I00
sg333
I1
sbsg328
g0
(g325
g145
(lp3361
g328
aVkDiWeird
p3362
atp3363
Rp3364
(dp3365
g21
I00
sg109
I01
sg23
I00
sg333
I1
sbsg329
g0
(g325
g145
(lp3366
VkFaultyHardware
p3367
aVkDead
p3368
aVkKilled
p3369
atp3370
Rp3371
(dp3372
g21
I00
sg109
I01
sg23
I00
sg333
I1
sbsbsg23
I00
sg3329
g0
(g1015
g2
Ntp3373
Rp3374
(dp3375
g21
I00
sg109
I01
sg23
I00
sg19
(lp3376
g3335
ag3336
ag3337
ag327
ag328
ag329
asg22
Nsg3335
g0
(g325
g145
(lp3377
VkOk
p3378
atp3379
Rp3380
(dp3381
g21
I00
sg109
I01
sg23
I00
sg333
I1
sbsg3336
g0
(g325
g145
(lp3382
VkDAC
p3383
aVkNoLaser
p3384
ag3345
aVkNNoisy
p3385
aVkNNNoisy
p3386
aVkNNNNoisy
p3387
aVkNNNNNoisy
p3388
aVkFixedG6
p3389
aVkFixedG1
p3390
aVkFixedG0
p3391
atp3392
Rp3393
(dp3394
g21
I00
sg109
I01
sg23
I00
sg333
I1
sbsg3337
g0
(g325
g145
(lp3395
tp3396
Rp3397
(dp3398
g21
I00
sg109
I01
sg23
I00
sg333
I1
sbsg327
g0
(g325
g145
(lp3399
tp3400
Rp3401
(dp3402
g21
I00
sg109
I01
sg23
I00
sg333
I1
sbsg328
g0
(g325
g145
(lp3403
tp3404
Rp3405
(dp3406
g21
I00
sg109
I01
sg23
I00
sg333
I1
sbsg329
g0
(g325
g145
(lp3407
VkNonRespondingIsolated
p3408
aVkDeadVFE
p3409
aVkDeadFE
p3410
aVkNoDataNoTP
p3411
atp3412
Rp3413
(dp3414
g21
I00
sg109
I01
sg23
I00
sg333
I1
sbsbsg3330
g0
(g105
g2
Ntp3415
Rp3416
(dp3417
g21
I00
sg109
I01
sg23
I00
sg110
F2.0
sbsg24
g629
sg26
I55
sg27
g3322
sbsVCastorDbProducer
p3418
g0
(g2859
g2
Ntp3419
Rp3420
(dp3421
g17
g3418
sg19
(lp3422
g1955
asg21
I00
sg22
Nsg1955
g0
(g715
g2
Ntp3423
Rp3424
(dp3425
g21
I00
sg109
I01
sg23
I00
sg110
g124
sbsg23
I00
sg24
g629
sg26
I55
sg27
g3418
sbsVEcalLaserCorrectionService
p3426
g0
(g2859
g2
Ntp3427
Rp3428
(dp3429
g17
g3426
sg19
(lp3430
VmaxExtrapolationTimeInSec
p3431
asg21
I00
sg22
Nsg3431
g0
(g321
g2
Ntp3432
Rp3433
(dp3434
g21
I00
sg109
I01
sg23
I00
sg110
I0
sbsg23
I00
sg24
g629
sg26
I55
sg27
g3426
sbsVEcalLaserCorrectionServiceMC
p3435
g0
(g2859
g2
Ntp3436
Rp3437
(dp3438
g17
g3435
sg19
(lp3439
g1955
asg21
I00
sg22
Nsg1955
g0
(g715
g2
Ntp3440
Rp3441
(dp3442
g21
I00
sg109
I01
sg23
I00
sg110
g124
sbsg23
I00
sg24
g629
sg26
I55
sg27
g3435
sbsVSiStripRecHitMatcherESProducer
p3443
g0
(g2859
g2
Ntp3444
Rp3445
(dp3446
g17
g3443
sg19
(lp3447
VComponentName
p3448
aVNSigmaInside
p3449
aVPreFilter
p3450
asg21
I00
sg22
Nsg3448
g0
(g715
g2
Ntp3451
Rp3452
(dp3453
g21
I00
sg109
I01
sg23
I00
sg110
VStandardMatcher
p3454
sbsg23
I00
sg3449
g0
(g105
g2
Ntp3455
Rp3456
(dp3457
g21
I00
sg109
I01
sg23
I00
sg110
F3.0
sbsg3450
g0
(g184
g2
Ntp3458
Rp3459
(dp3460
g21
I00
sg109
I01
sg23
I00
sg110
I00
sbsg24
g629
sg26
I55
sg27
g3443
sbsVStripCPEfromTrackAngleESProducer
p3461
g0
(g2859
g2
Ntp3462
Rp3463
(dp3464
g17
VStripCPEESProducer
p3465
sg19
(lp3466
g3448
aVComponentType
p3467
aVparameters
p3468
asg21
I00
sg22
Nsg3448
g0
(g715
g2
Ntp3469
Rp3470
(dp3471
g21
I00
sg109
I01
sg23
I01
sg110
VStripCPEfromTrackAngle
p3472
sbsg23
I00
sg3467
g0
(g715
g2
Ntp3473
Rp3474
(dp3475
g21
I00
sg109
I01
sg23
I01
sg110
g3472
sbsg3468
g0
(g1015
g2
Ntp3476
Rp3477
(dp3478
g21
I00
sg109
I01
sg23
I00
sg19
(lp3479
VmLC_P0
p3480
aVmLC_P1
p3481
aVmLC_P2
p3482
aVmTIB_P0
p3483
aVmTIB_P1
p3484
aVmTOB_P0
p3485
aVmTOB_P1
p3486
aVmTID_P0
p3487
aVmTID_P1
p3488
aVmTEC_P0
p3489
aVmTEC_P1
p3490
aVuseLegacyError
p3491
aVmaxChgOneMIP
p3492
asg22
Nsg3480
g0
(g105
g2
Ntp3493
Rp3494
(dp3495
g21
I00
sg109
I01
sg23
I00
sg110
F-0.326
sbsg3481
g0
(g105
g2
Ntp3496
Rp3497
(dp3498
g21
I00
sg109
I01
sg23
I00
sg110
F0.618
sbsg3482
g0
(g105
g2
Ntp3499
Rp3500
(dp3501
g21
I00
sg109
I01
sg23
I00
sg110
F0.3
sbsg3483
g0
(g105
g2
Ntp3502
Rp3503
(dp3504
g21
I00
sg109
I01
sg23
I00
sg110
F-0.742
sbsg3484
g0
(g105
g2
Ntp3505
Rp3506
(dp3507
g21
I00
sg109
I01
sg23
I00
sg110
F0.202
sbsg3485
g0
(g105
g2
Ntp3508
Rp3509
(dp3510
g21
I00
sg109
I01
sg23
I00
sg110
F-1.026
sbsg3486
g0
(g105
g2
Ntp3511
Rp3512
(dp3513
g21
I00
sg109
I01
sg23
I00
sg110
F0.253
sbsg3487
g0
(g105
g2
Ntp3514
Rp3515
(dp3516
g21
I00
sg109
I01
sg23
I00
sg110
F-1.427
sbsg3488
g0
(g105
g2
Ntp3517
Rp3518
(dp3519
g21
I00
sg109
I01
sg23
I00
sg110
F0.433
sbsg3489
g0
(g105
g2
Ntp3520
Rp3521
(dp3522
g21
I00
sg109
I01
sg23
I00
sg110
F-1.885
sbsg3490
g0
(g105
g2
Ntp3523
Rp3524
(dp3525
g21
I00
sg109
I01
sg23
I00
sg110
F0.471
sbsg3491
g0
(g184
g2
Ntp3526
Rp3527
(dp3528
g21
I00
sg109
I01
sg23
I00
sg110
I00
sbsg3492
g0
(g105
g2
Ntp3529
Rp3530
(dp3531
g21
I00
sg109
I01
sg23
I00
sg110
F6000.0
sbsbsg24
V/cvmfs/cms-ib.cern.ch/sw/x86_64/week1/el8_amd64_gcc12/cms/cmssw/CMSSW_14_1_X_2024-06-09-2300/src/RecoLocalTracker/SiStripRecHitConverter/python/StripCPEfromTrackAngle_cfi.py
p3532
sg26
I4
sg27
g3461
sbsVctppsBeamParametersFromLHCInfoESSource
p3533
g0
(g2859
g2
Ntp3534
Rp3535
(dp3536
g17
VCTPPSBeamParametersFromLHCInfoESSource
p3537
sg19
(lp3538
VlhcInfoLabel
p3539
aVlhcInfoPerLSLabel
p3540
aVlhcInfoPerFillLabel
p3541
aVuseNewLHCInfo
p3542
aVbeamDivX45
p3543
aVbeamDivY45
p3544
aVbeamDivX56
p3545
aVbeamDivY56
p3546
aVvtxOffsetX45
p3547
aVvtxOffsetY45
p3548
aVvtxOffsetZ45
p3549
aVvtxOffsetX56
p3550
aVvtxOffsetY56
p3551
aVvtxOffsetZ56
p3552
aVvtxStddevX
p3553
aVvtxStddevY
p3554
aVvtxStddevZ
p3555
ag1955
asg21
I00
sg22
Nsg3539
g0
(g715
g2
Ntp3556
Rp3557
(dp3558
g21
I00
sg109
I01
sg23
I00
sg110
g124
sbsg23
I01
sg3540
g0
(g715
g2
Ntp3559
Rp3560
(dp3561
g21
I00
sg109
I01
sg23
I00
sg110
g124
sbsg3541
g0
(g715
g2
Ntp3562
Rp3563
(dp3564
g21
I00
sg109
I01
sg23
I00
sg110
g124
sbsg3542
g0
(g184
g2
Ntp3565
Rp3566
(dp3567
g21
I00
sg109
I01
sg23
I01
sg110
I01
sbsg3543
g0
(g105
g2
Ntp3568
Rp3569
(dp3570
g21
I00
sg109
I01
sg23
I00
sg110
F0.1
sbsg3544
g0
(g105
g2
Ntp3571
Rp3572
(dp3573
g21
I00
sg109
I01
sg23
I00
sg110
F0.1
sbsg3545
g0
(g105
g2
Ntp3574
Rp3575
(dp3576
g21
I00
sg109
I01
sg23
I00
sg110
F0.1
sbsg3546
g0
(g105
g2
Ntp3577
Rp3578
(dp3579
g21
I00
sg109
I01
sg23
I00
sg110
F0.1
sbsg3547
g0
(g105
g2
Ntp3580
Rp3581
(dp3582
g21
I00
sg109
I01
sg23
I00
sg110
F0.01
sbsg3548
g0
(g105
g2
Ntp3583
Rp3584
(dp3585
g21
I00
sg109
I01
sg23
I00
sg110
F0.01
sbsg3549
g0
(g105
g2
Ntp3586
Rp3587
(dp3588
g21
I00
sg109
I01
sg23
I00
sg110
F0.01
sbsg3550
g0
(g105
g2
Ntp3589
Rp3590
(dp3591
g21
I00
sg109
I01
sg23
I00
sg110
F0.01
sbsg3551
g0
(g105
g2
Ntp3592
Rp3593
(dp3594
g21
I00
sg109
I01
sg23
I00
sg110
F0.01
sbsg3552
g0
(g105
g2
Ntp3595
Rp3596
(dp3597
g21
I00
sg109
I01
sg23
I00
sg110
F0.01
sbsg3553
g0
(g105
g2
Ntp3598
Rp3599
(dp3600
g21
I00
sg109
I01
sg23
I00
sg110
F0.02
sbsg3554
g0
(g105
g2
Ntp3601
Rp3602
(dp3603
g21
I00
sg109
I01
sg23
I00
sg110
F0.02
sbsg3555
g0
(g105
g2
Ntp3604
Rp3605
(dp3606
g21
I00
sg109
I01
sg23
I00
sg110
F0.02
sbsg1955
g0
(g715
g2
Ntp3607
Rp3608
(dp3609
g21
I00
sg109
I01
sg23
I00
sg110
g124
sbsg24
V/cvmfs/cms-ib.cern.ch/sw/x86_64/week1/el8_amd64_gcc12/cms/cmssw/CMSSW_14_1_X_2024-06-09-2300/src/CalibPPS/ESProducers/python/ctppsBeamParametersFromLHCInfoESSource_cfi.py
p3610
sg26
I2
sg27
g3533
sbsVctppsInterpolatedOpticalFunctionsESSource
p3611
g0
(g2859
g2
Ntp3612
Rp3613
(dp3614
g17
VCTPPSInterpolatedOpticalFunctionsESSource
p3615
sg19
(lp3616
g3539
ag3541
ag3540
aVopticsLabel
p3617
ag3542
ag1955
asg21
I00
sg22
Nsg3539
g0
(g715
g2
Ntp3618
Rp3619
(dp3620
g21
I00
sg109
I01
sg23
I00
sg110
g124
sbsg23
I01
sg3541
g0
(g715
g2
Ntp3621
Rp3622
(dp3623
g21
I00
sg109
I01
sg23
I00
sg110
g124
sbsg3540
g0
(g715
g2
Ntp3624
Rp3625
(dp3626
g21
I00
sg109
I01
sg23
I00
sg110
g124
sbsg3617
g0
(g715
g2
Ntp3627
Rp3628
(dp3629
g21
I00
sg109
I01
sg23
I00
sg110
g124
sbsg3542
g0
(g184
g2
Ntp3630
Rp3631
(dp3632
g21
I00
sg109
I01
sg23
I01
sg110
I01
sbsg1955
g0
(g715
g2
Ntp3633
Rp3634
(dp3635
g21
I00
sg109
I01
sg23
I00
sg110
g124
sbsg24
V/cvmfs/cms-ib.cern.ch/sw/x86_64/week1/el8_amd64_gcc12/cms/cmssw/CMSSW_14_1_X_2024-06-09-2300/src/CalibPPS/ESProducers/python/ctppsInterpolatedOpticalFunctionsESSource_cfi.py
p3636
sg26
I2
sg27
g3611
sbsVhcal_db_producer
p3637
g0
(g2859
g2
Ntp3638
Rp3639
(dp3640
g17
VHcalDbProducer
p3641
sg19
(lp3642
Vdump
p3643
aVfile
p3644
asg21
I00
sg22
Nsg3643
g0
(g325
g145
(lp3645
g124
atp3646
Rp3647
(dp3648
g21
I00
sg109
I00
sg23
I00
sg333
I1
sbsg23
I00
sg3644
g0
(g715
g2
Ntp3649
Rp3650
(dp3651
g21
I00
sg109
I00
sg23
I00
sg110
g124
sbsg24
g629
sg26
I55
sg27
g3637
sbsVmultipleScatteringParametrisationMakerESProducer
p3652
g0
(g2859
g2
Ntp3653
Rp3654
(dp3655
g17
VMultipleScatteringParametrisationMakerESProducer
p3656
sg19
(lp3657
g1955
asg21
I00
sg22
Nsg1955
g0
(g715
g2
Ntp3658
Rp3659
(dp3660
g21
I00
sg109
I01
sg23
I00
sg110
g124
sbsg23
I00
sg24
g629
sg26
I55
sg27
g3652
sbsVsiPixelQualityESProducer
p3661
g0
(g2859
g2
Ntp3662
Rp3663
(dp3664
g17
VSiPixelQualityESProducer
p3665
sg19
(lp3666
VsiPixelQualityFromDbLabel
p3667
aVListOfRecordToMerge
p3668
ag1955
asg21
I00
sg22
Nsg3667
g0
(g715
g2
Ntp3669
Rp3670
(dp3671
g21
I00
sg109
I01
sg23
I00
sg110
g124
sbsg23
I00
sg3668
g0
(g1923
g145
(lp3672
g0
(g1015
g2
Ntp3673
Rp3674
(dp3675
g21
I00
sg109
I01
sg23
I00
sg19
(lp3676
Vrecord
p3677
aVtag
p3678
asg22
Nsg3677
g0
(g715
g2
Ntp3679
Rp3680
(dp3681
g21
I00
sg109
I01
sg23
I00
sg110
VSiPixelQualityFromDbRcd
p3682
sbsg3678
g0
(g715
g2
Ntp3683
Rp3684
(dp3685
g21
I00
sg109
I01
sg23
I00
sg110
g124
sbsbag0
(g1015
g2
Ntp3686
Rp3687
(dp3688
g21
I00
sg109
I01
sg23
I00
sg19
(lp3689
g3677
ag3678
asg22
Nsg3677
g0
(g715
g2
Ntp3690
Rp3691
(dp3692
g21
I00
sg109
I01
sg23
I00
sg110
VSiPixelDetVOffRcd
p3693
sbsg3678
g0
(g715
g2
Ntp3694
Rp3695
(dp3696
g21
I00
sg109
I01
sg23
I00
sg110
g124
sbsbatp3697
Rp3698
(dp3699
g21
I00
sg109
I01
sg23
I00
sg333
I1
sbsg1955
g0
(g715
g2
Ntp3700
Rp3701
(dp3702
g21
I00
sg109
I01
sg23
I00
sg110
g124
sbsg24
g629
sg26
I55
sg27
g3661
sbsVsiStripBackPlaneCorrectionDepESProducer
p3703
g0
(g2859
g2
Ntp3704
Rp3705
(dp3706
g17
VSiStripBackPlaneCorrectionDepESProducer
p3707
sg19
(lp3708
VLatencyRecord
p3709
aVBackPlaneCorrectionPeakMode
p3710
aVBackPlaneCorrectionDeconvMode
p3711
asg21
I00
sg22
Nsg3709
g0
(g1015
g2
Ntp3712
Rp3713
(dp3714
g21
I00
sg109
I01
sg23
I00
sg19
(lp3715
g3677
ag3293
asg22
Nsg3677
g0
(g715
g2
Ntp3716
Rp3717
(dp3718
g21
I00
sg109
I01
sg23
I00
sg110
VSiStripLatencyRcd
p3719
sbsg3293
g0
(g715
g2
Ntp3720
Rp3721
(dp3722
g21
I00
sg109
I00
sg23
I00
sg110
g124
sbsbsg23
I00
sg3710
g0
(g1015
g2
Ntp3723
Rp3724
(dp3725
g21
I00
sg109
I01
sg23
I00
sg19
(lp3726
g3677
ag3293
asg22
Nsg3677
g0
(g715
g2
Ntp3727
Rp3728
(dp3729
g21
I00
sg109
I01
sg23
I00
sg110
VSiStripBackPlaneCorrectionRcd
p3730
sbsg3293
g0
(g715
g2
Ntp3731
Rp3732
(dp3733
g21
I00
sg109
I00
sg23
I00
sg110
Vpeak
p3734
sbsbsg3711
g0
(g1015
g2
Ntp3735
Rp3736
(dp3737
g21
I00
sg109
I01
sg23
I00
sg19
(lp3738
g3677
ag3293
asg22
Nsg3677
g0
(g715
g2
Ntp3739
Rp3740
(dp3741
g21
I00
sg109
I01
sg23
I00
sg110
g3730
sbsg3293
g0
(g715
g2
Ntp3742
Rp3743
(dp3744
g21
I00
sg109
I00
sg23
I00
sg110
Vdeconvolution
p3745
sbsbsg24
g629
sg26
I55
sg27
g3703
sbsVsiStripGainESProducer
p3746
g0
(g2859
g2
Ntp3747
Rp3748
(dp3749
g17
VSiStripGainESProducer
p3750
sg19
(lp3751
g1955
aVprintDebug
p3752
aVAutomaticNormalization
p3753
aVAPVGain
p3754
asg21
I00
sg22
Nsg1955
g0
(g715
g2
Ntp3755
Rp3756
(dp3757
g21
I00
sg109
I01
sg23
I00
sg110
g124
sbsg23
I00
sg3752
g0
(g184
g2
Ntp3758
Rp3759
(dp3760
g21
I00
sg109
I00
sg23
I00
sg110
I00
sbsg3753
g0
(g184
g2
Ntp3761
Rp3762
(dp3763
g21
I00
sg109
I01
sg23
I00
sg110
I00
sbsg3754
g0
(g1923
g145
(lp3764
g0
(g1015
g2
Ntp3765
Rp3766
(dp3767
g21
I00
sg109
I01
sg23
I00
sg19
(lp3768
VRecord
p3769
aVLabel
p3770
aVNormalizationFactor
p3771
asg22
Nsg3769
g0
(g715
g2
Ntp3772
Rp3773
(dp3774
g21
I00
sg109
I01
sg23
I00
sg110
VSiStripApvGainRcd
p3775
sbsg3770
g0
(g715
g2
Ntp3776
Rp3777
(dp3778
g21
I00
sg109
I00
sg23
I00
sg110
g124
sbsg3771
g0
(g105
g2
Ntp3779
Rp3780
(dp3781
g21
I00
sg109
I00
sg23
I00
sg110
F1.0
sbsbag0
(g1015
g2
Ntp3782
Rp3783
(dp3784
g21
I00
sg109
I01
sg23
I00
sg19
(lp3785
g3769
ag3770
ag3771
asg22
Nsg3769
g0
(g715
g2
Ntp3786
Rp3787
(dp3788
g21
I00
sg109
I01
sg23
I00
sg110
VSiStripApvGain2Rcd
p3789
sbsg3770
g0
(g715
g2
Ntp3790
Rp3791
(dp3792
g21
I00
sg109
I00
sg23
I00
sg110
g124
sbsg3771
g0
(g105
g2
Ntp3793
Rp3794
(dp3795
g21
I00
sg109
I00
sg23
I00
sg110
F1.0
sbsbatp3796
Rp3797
(dp3798
g21
I00
sg109
I01
sg23
I00
sg333
I1
sbsg24
g629
sg26
I55
sg27
g3746
sbsVsiStripLorentzAngleDepESProducer
p3799
g0
(g2859
g2
Ntp3800
Rp3801
(dp3802
g17
VSiStripLorentzAngleDepESProducer
p3803
sg19
(lp3804
g3709
aVLorentzAnglePeakMode
p3805
aVLorentzAngleDeconvMode
p3806
asg21
I00
sg22
Nsg3709
g0
(g1015
g2
Ntp3807
Rp3808
(dp3809
g21
I00
sg109
I01
sg23
I00
sg19
(lp3810
g3677
ag3293
asg22
Nsg3677
g0
(g715
g2
Ntp3811
Rp3812
(dp3813
g21
I00
sg109
I01
sg23
I00
sg110
g3719
sbsg3293
g0
(g715
g2
Ntp3814
Rp3815
(dp3816
g21
I00
sg109
I00
sg23
I00
sg110
g124
sbsbsg23
I00
sg3805
g0
(g1015
g2
Ntp3817
Rp3818
(dp3819
g21
I00
sg109
I01
sg23
I00
sg19
(lp3820
g3677
ag3293
asg22
Nsg3677
g0
(g715
g2
Ntp3821
Rp3822
(dp3823
g21
I00
sg109
I01
sg23
I00
sg110
VSiStripLorentzAngleRcd
p3824
sbsg3293
g0
(g715
g2
Ntp3825
Rp3826
(dp3827
g21
I00
sg109
I00
sg23
I00
sg110
g3734
sbsbsg3806
g0
(g1015
g2
Ntp3828
Rp3829
(dp3830
g21
I00
sg109
I01
sg23
I00
sg19
(lp3831
g3677
ag3293
asg22
Nsg3677
g0
(g715
g2
Ntp3832
Rp3833
(dp3834
g21
I00
sg109
I01
sg23
I00
sg110
g3824
sbsg3293
g0
(g715
g2
Ntp3835
Rp3836
(dp3837
g21
I00
sg109
I00
sg23
I00
sg110
g3745
sbsbsg24
g629
sg26
I55
sg27
g3799
sbsVsiStripQualityESProducer
p3838
g0
(g2859
g2
Ntp3839
Rp3840
(dp3841
g17
VSiStripQualityESProducer
p3842
sg19
(lp3843
g1955
ag3668
aVReduceGranularity
p3844
aVThresholdForReducedGranularity
p3845
aVPrintDebugOutput
p3846
aVUseEmptyRunInfo
p3847
asg21
I00
sg22
Nsg1955
g0
(g715
g2
Ntp3848
Rp3849
(dp3850
g21
I00
sg109
I01
sg23
I00
sg110
g124
sbsg23
I01
sg3668
g0
(g1923
g145
(lp3851
g0
(g1015
g2
Ntp3852
Rp3853
(dp3854
g21
I00
sg109
I01
sg23
I00
sg19
(lp3855
g3677
ag3678
asg22
Nsg3677
g0
(g715
g2
Ntp3856
Rp3857
(dp3858
g21
I00
sg109
I01
sg23
I00
sg110
VSiStripDetVOffRcd
p3859
sbsg3678
g0
(g715
g2
Ntp3860
Rp3861
(dp3862
g21
I00
sg109
I01
sg23
I00
sg110
g124
sbsbag0
(g1015
g2
Ntp3863
Rp3864
(dp3865
g21
I00
sg109
I01
sg23
I00
sg19
(lp3866
g3677
ag3678
asg22
Nsg3677
g0
(g715
g2
Ntp3867
Rp3868
(dp3869
g21
I00
sg109
I01
sg23
I00
sg110
VSiStripDetCablingRcd
p3870
sbsg3678
g0
(g715
g2
Ntp3871
Rp3872
(dp3873
g21
I00
sg109
I01
sg23
I00
sg110
g124
sbsbag0
(g1015
g2
Ntp3874
Rp3875
(dp3876
g21
I00
sg109
I01
sg23
I00
sg19
(lp3877
g3677
ag3678
asg22
Nsg3677
g0
(g715
g2
Ntp3878
Rp3879
(dp3880
g21
I00
sg109
I01
sg23
I00
sg110
VRunInfoRcd
p3881
sbsg3678
g0
(g715
g2
Ntp3882
Rp3883
(dp3884
g21
I00
sg109
I01
sg23
I00
sg110
g124
sbsbag0
(g1015
g2
Ntp3885
Rp3886
(dp3887
g21
I00
sg109
I01
sg23
I00
sg19
(lp3888
g3677
ag3678
asg22
Nsg3677
g0
(g715
g2
Ntp3889
Rp3890
(dp3891
g21
I00
sg109
I01
sg23
I00
sg110
VSiStripBadChannelRcd
p3892
sbsg3678
g0
(g715
g2
Ntp3893
Rp3894
(dp3895
g21
I00
sg109
I01
sg23
I00
sg110
g124
sbsbag0
(g1015
g2
Ntp3896
Rp3897
(dp3898
g21
I00
sg109
I01
sg23
I00
sg19
(lp3899
g3677
ag3678
asg22
Nsg3677
g0
(g715
g2
Ntp3900
Rp3901
(dp3902
g21
I00
sg109
I01
sg23
I00
sg110
VSiStripBadFiberRcd
p3903
sbsg3678
g0
(g715
g2
Ntp3904
Rp3905
(dp3906
g21
I00
sg109
I01
sg23
I00
sg110
g124
sbsbag0
(g1015
g2
Ntp3907
Rp3908
(dp3909
g21
I00
sg109
I01
sg23
I00
sg19
(lp3910
g3677
ag3678
asg22
Nsg3677
g0
(g715
g2
Ntp3911
Rp3912
(dp3913
g21
I00
sg109
I01
sg23
I00
sg110
VSiStripBadModuleRcd
p3914
sbsg3678
g0
(g715
g2
Ntp3915
Rp3916
(dp3917
g21
I00
sg109
I01
sg23
I00
sg110
g124
sbsbag0
(g1015
g2
Ntp3918
Rp3919
(dp3920
g21
I00
sg109
I01
sg23
I00
sg19
(lp3921
g3677
ag3678
asg22
Nsg3677
g0
(g715
g2
Ntp3922
Rp3923
(dp3924
g21
I00
sg109
I01
sg23
I00
sg110
VSiStripBadStripRcd
p3925
sbsg3678
g0
(g715
g2
Ntp3926
Rp3927
(dp3928
g21
I00
sg109
I01
sg23
I00
sg110
g124
sbsbatp3929
Rp3930
(dp3931
g21
I00
sg109
I01
sg23
I00
sg333
I1
sbsg3844
g0
(g184
g2
Ntp3932
Rp3933
(dp3934
g21
I00
sg109
I01
sg23
I00
sg110
I00
sbsg3845
g0
(g105
g2
Ntp3935
Rp3936
(dp3937
g21
I00
sg109
I01
sg23
I00
sg110
F0.3
sbsg3846
g0
(g184
g2
Ntp3938
Rp3939
(dp3940
g21
I00
sg109
I01
sg23
I00
sg110
I00
sbsg3847
g0
(g184
g2
Ntp3941
Rp3942
(dp3943
g21
I00
sg109
I01
sg23
I00
sg110
I00
sbsg24
g629
sg26
I55
sg27
g3838
sbsVsistripconn
p3944
g0
(g2859
g2
Ntp3945
Rp3946
(dp3947
g17
VSiStripConnectivity
p3948
sg19
(lp3949
sg21
I00
sg22
Nsg23
I00
sg24
g629
sg26
I55
sg27
g3944
sbsVstripCPEESProducer
p3950
g0
(g2859
g2
Ntp3951
Rp3952
(dp3953
g17
g3465
sg19
(lp3954
g3448
ag3467
ag3468
asg21
I00
sg22
Nsg3448
g0
(g715
g2
Ntp3955
Rp3956
(dp3957
g21
I00
sg109
I01
sg23
I00
sg110
VstripCPE
p3958
sbsg23
I00
sg3467
g0
(g715
g2
Ntp3959
Rp3960
(dp3961
g21
I00
sg109
I01
sg23
I00
sg110
VSimpleStripCPE
p3962
sbsg3468
g0
(g1015
g2
Ntp3963
Rp3964
(dp3965
g21
I00
sg109
I01
sg23
I00
sg19
(lp3966
sg22
Nsbsg24
g629
sg26
I55
sg27
g3950
sbssV_Process__esprefers
p3967
(dp3968
Ves_prefer_hcalHardcode
p3969
g0
(cFWCore.ParameterSet.Modules
ESPrefer
p3970
g2
Ntp3971
Rp3972
(dp3973
g17
g2124
sg19
(lp3974
sg21
I00
sg22
Nsg23
I00
sg24
g629
sg26
I91
sV_targetLabel
p3975
g2120
sg27
g3969
sbssV_Process__aliases
p3976
(dp3977
sV_Process__psets
p3978
(dp3979
VmaxLuminosityBlocks
p3980
g0
(g1015
g2
Ntp3981
Rp3982
(dp3983
g21
I00
sg109
I00
sg23
I00
sg19
(lp3984
Vinput
p3985
asg22
Nsg3985
g0
(g305
g2
Ntp3986
Rp3987
(dp3988
g21
I00
sg109
I00
sg23
I00
sg110
I-1
sbsg27
g3980
sbsVnanoDQMIO_perLSoutput
p3989
g0
(g1015
g2
Ntp3990
Rp3991
(dp3992
g21
I00
sg109
I01
sg23
I00
sg19
(lp3993
g1271
asg22
Nsg1271
g0
(g325
g145
(lp3994
g1283
ag1284
ag1285
ag1286
ag1287
ag1288
ag1289
ag1290
ag1291
ag1292
ag1293
ag1294
ag1295
ag1296
ag1297
ag1298
ag1299
ag1300
ag1301
ag1302
ag1303
ag1304
ag1305
ag1306
ag1307
ag1308
ag1309
ag1310
ag1311
ag1312
ag1313
ag1314
ag1315
ag1316
ag1317
ag1318
ag1319
ag1320
ag1321
ag1322
ag1323
ag1324
ag1325
ag1326
ag1327
ag1328
ag1329
ag1330
ag1331
ag1332
ag1333
ag1334
ag1335
ag1336
ag1337
ag1338
ag1339
ag1340
ag1341
ag1342
ag1343
ag1344
ag1345
ag1346
ag1347
ag1348
ag1349
ag1350
ag1351
ag1352
ag1353
ag1354
ag1355
ag1356
ag1357
ag1358
ag1359
ag1360
ag1361
ag1362
ag1363
ag1364
ag1365
ag1366
ag1367
ag1368
ag1369
ag1370
ag1371
ag1372
ag1373
ag1374
ag1375
ag1376
ag1377
ag1378
ag1379
ag1380
ag1381
ag1382
ag1383
ag1384
ag1385
ag1386
ag1387
ag1388
ag1389
ag1390
ag1391
ag1392
ag1393
ag1394
ag1395
ag1396
ag1397
ag1398
ag1399
ag1400
ag1401
ag1402
ag1403
ag1404
ag1405
ag1406
ag1407
ag1408
ag1409
ag1410
ag1411
ag1412
ag1413
ag1414
ag1415
ag1416
ag1417
ag1418
ag1419
ag1420
ag1421
ag1422
ag1423
ag1424
ag1425
ag1426
ag1427
ag1428
ag1429
ag1430
ag1431
ag1432
ag1433
ag1434
ag1435
ag1436
ag1437
ag1438
ag1439
ag1440
ag1441
ag1442
ag1443
ag1444
ag1445
ag1446
ag1447
ag1448
ag1449
ag1450
ag1451
ag1452
ag1453
ag1454
ag1455
ag1456
ag1457
ag1458
ag1459
ag1460
ag1461
ag1462
ag1463
ag1464
ag1465
ag1466
ag1467
ag1468
ag1469
ag1470
ag1471
ag1472
ag1473
ag1474
ag1475
ag1476
ag1477
ag1478
ag1479
ag1480
ag1481
ag1482
ag1483
ag1484
ag1485
ag1486
ag1487
ag1488
ag1489
ag1490
ag1491
ag1492
ag1493
ag1494
ag1495
ag1496
ag1497
ag1498
ag1499
ag1500
ag1501
ag1502
ag1503
ag1504
ag1505
ag1506
ag1507
ag1508
atp3995
Rp3996
(dp3997
g21
I00
sg109
I00
sg23
I00
sg333
I1
sbsg27
g3989
sbsVCondDB
p3998
g0
(g1015
g2
Ntp3999
Rp4000
(dp4001
g21
I00
sg109
I01
sg23
I00
sg19
(lp4002
g1876
ag1877
asg22
Nsg1876
g0
(g1015
g2
Ntp4003
Rp4004
(dp4005
g21
I00
sg109
I01
sg23
I00
sg19
(lp4006
g1892
ag1893
ag1894
ag1895
ag1896
asg22
Nsg1892
g0
(g715
g2
Ntp4007
Rp4008
(dp4009
g21
I00
sg109
I00
sg23
I00
sg110
g124
sbsg1893
g0
(g305
g2
Ntp4010
Rp4011
(dp4012
g21
I00
sg109
I00
sg23
I00
sg110
I0
sbsg1894
g0
(g715
g2
Ntp4013
Rp4014
(dp4015
g21
I00
sg109
I00
sg23
I00
sg110
g124
sbsg1895
g0
(g305
g2
Ntp4016
Rp4017
(dp4018
g21
I00
sg109
I00
sg23
I00
sg110
I0
sbsg1896
g0
(g305
g2
Ntp4019
Rp4020
(dp4021
g21
I00
sg109
I00
sg23
I00
sg110
I0
sbsbsg1877
g0
(g715
g2
Ntp4022
Rp4023
(dp4024
g21
I00
sg109
I01
sg23
I00
sg110
g124
sbsg27
g3998
sbsg2134
g2185
sVoptions
p4025
g0
(g1015
g2
Ntp4026
Rp4027
(dp4028
g21
I00
sg109
I00
sg23
I01
sg19
(lp4029
VnumberOfThreads
p4030
aVnumberOfStreams
p4031
aVnumberOfConcurrentRuns
p4032
aVnumberOfConcurrentLuminosityBlocks
p4033
aVeventSetup
p4034
aVaccelerators
p4035
aVwantSummary
p4036
aVfileMode
p4037
aVforceEventSetupCacheClearOnNewRun
p4038
aVthrowIfIllegalParameter
p4039
aVprintDependencies
p4040
aVdeleteNonConsumedUnscheduledModules
p4041
aVsizeOfStackForThreadsInKB
p4042
aVRethrow
p4043
aVTryToContinue
p4044
aVIgnoreCompletely
p4045
aVmodulesToCallForTryToContinue
p4046
aVcanDeleteEarly
p4047
aVholdsReferencesToDeleteEarly
p4048
aVmodulesToIgnoreForDeleteEarly
p4049
aVdumpOptions
p4050
aVallowUnscheduled
p4051
aVemptyRunLumiMode
p4052
aVmakeTriggerResults
p4053
asg22
Nsg4030
g0
(g321
g2
Ntp4054
Rp4055
(dp4056
g21
I00
sg109
I00
sg23
I00
sg110
I1
sbsg4031
g0
(g321
g2
Ntp4057
Rp4058
(dp4059
g21
I00
sg109
I00
sg23
I00
sg110
I0
sbsg4032
g0
(g321
g2
Ntp4060
Rp4061
(dp4062
g21
I00
sg109
I00
sg23
I00
sg110
I1
sbsg4033
g0
(g321
g2
Ntp4063
Rp4064
(dp4065
g21
I00
sg109
I00
sg23
I00
sg110
I0
sbsg4034
g0
(g1015
g2
Ntp4066
Rp4067
(dp4068
g21
I00
sg109
I00
sg23
I00
sg19
(lp4069
VnumberOfConcurrentIOVs
p4070
aVforceNumberOfConcurrentIOVs
p4071
asg22
Nsg4070
g0
(g321
g2
Ntp4072
Rp4073
(dp4074
g21
I00
sg109
I00
sg23
I00
sg110
I0
sbsg4071
g0
(g1015
g2
Ntp4075
Rp4076
(dp4077
g21
I00
sg109
I00
sg23
I00
sg19
(lp4078
sg22
g0
(cFWCore.ParameterSet.Types
_RequiredParameter
p4079
g2
Ntp4080
Rp4081
(dp4082
g21
I00
sg109
I00
sg23
I00
sg935
g321
sg936
Nsbsbsbsg4035
g0
(g325
g145
(lp4083
V*
p4084
atp4085
Rp4086
(dp4087
g21
I00
sg109
I00
sg23
I00
sg333
I1
sbsg4036
g0
(g184
g2
Ntp4088
Rp4089
(dp4090
g21
I00
sg109
I00
sg23
I00
sg110
I01
sbsg4037
g0
(g715
g2
Ntp4091
Rp4092
(dp4093
g21
I00
sg109
I00
sg23
I00
sg110
VFULLMERGE
p4094
sbsg4038
g0
(g184
g2
Ntp4095
Rp4096
(dp4097
g21
I00
sg109
I00
sg23
I00
sg110
I00
sbsg4039
g0
(g184
g2
Ntp4098
Rp4099
(dp4100
g21
I00
sg109
I00
sg23
I00
sg110
I01
sbsg4040
g0
(g184
g2
Ntp4101
Rp4102
(dp4103
g21
I00
sg109
I00
sg23
I00
sg110
I00
sbsg4041
g0
(g184
g2
Ntp4104
Rp4105
(dp4106
g21
I00
sg109
I00
sg23
I00
sg110
I01
sbsg4042
g0
(g931
g2
Ntp4107
Rp4108
(dp4109
g21
I00
sg109
I00
sg23
I00
sg935
g321
sg936
Nsbsg4043
g0
(g325
g145
(lp4110
tp4111
Rp4112
(dp4113
g21
I00
sg109
I00
sg23
I00
sg333
I1
sbsg4044
g0
(g325
g145
(lp4114
tp4115
Rp4116
(dp4117
g21
I00
sg109
I00
sg23
I00
sg333
I1
sbsg4045
g0
(g325
g145
(lp4118
tp4119
Rp4120
(dp4121
g21
I00
sg109
I00
sg23
I00
sg333
I1
sbsg4046
g0
(g325
g145
(lp4122
tp4123
Rp4124
(dp4125
g21
I00
sg109
I00
sg23
I00
sg333
I1
sbsg4047
g0
(g325
g145
(lp4126
tp4127
Rp4128
(dp4129
g21
I00
sg109
I00
sg23
I00
sg333
I1
sbsg4048
g0
(g1923
g145
(lp4130
tp4131
Rp4132
(dp4133
g21
I00
sg109
I00
sg23
I00
sg333
I1
sbsg4049
g0
(g325
g145
(lp4134
tp4135
Rp4136
(dp4137
g21
I00
sg109
I00
sg23
I00
sg333
I1
sbsg4050
g0
(g184
g2
Ntp4138
Rp4139
(dp4140
g21
I00
sg109
I00
sg23
I00
sg110
I00
sbsg4051
g0
(cFWCore.ParameterSet.Types
_ObsoleteParameter
p4141
g2
Ntp4142
Rp4143
(dp4144
g21
I00
sg109
I00
sg23
I00
sg935
g184
sg936
Nsbsg4052
g0
(g4141
g2
Ntp4145
Rp4146
(dp4147
g21
I00
sg109
I00
sg23
I00
sg935
g715
sg936
Nsbsg4053
g0
(g4141
g2
Ntp4148
Rp4149
(dp4150
g21
I00
sg109
I00
sg23
I00
sg935
g184
sg936
Nsbsg27
g4025
sbsVmaxEvents
p4151
g0
(g1015
g2
Ntp4152
Rp4153
(dp4154
g21
I00
sg109
I00
sg23
I01
sg19
(lp4155
g3985
ag1206
asg22
Nsg3985
g0
(g931
g2
Ntp4156
Rp4157
(dp4158
g21
I00
sg109
I00
sg23
I00
sg935
g305
sg936
g0
(g305
g2
Ntp4159
Rp4160
(dp4161
g21
I00
sg109
I00
sg23
I00
sg110
I-1
sbsbsg1206
g0
(g931
g2
Ntp4162
Rp4163
(dp4164
g21
I00
sg109
I00
sg23
I00
sg935
g0
(cFWCore.ParameterSet.Types
_AllowedParameterTypes
p4165
g2
Ntp4166
Rp4167
(dp4168
V_AllowedParameterTypes__types
p4169
(g305
g1015
tp4170
sV_default
p4171
NsV__name__
p4172
Vallowed(cms.int32,cms.PSet)
p4173
sbsg936
Nsbsg27
g4151
sbssV_Process__vpsets
p4174
(dp4175
sV_cloneToObjectDict
p4176
(dp4177
L140028226275408L
g0
(g1015
g2
Ntp4178
Rp4179
(dp4180
g21
I00
sg109
I00
sg23
I00
sg19
(lp4181
g4030
ag4031
ag4032
ag4033
ag4034
ag4035
ag4036
ag4037
ag4038
ag4039
ag4040
ag4041
ag4042
ag4043
ag4044
ag4045
ag4046
ag4047
ag4048
ag4049
ag4050
ag4051
ag4052
ag4053
asg22
Nsg4030
g0
(g321
g2
Ntp4182
Rp4183
(dp4184
g21
I00
sg109
I00
sg23
I00
sg110
I1
sbsg4031
g0
(g321
g2
Ntp4185
Rp4186
(dp4187
g21
I00
sg109
I00
sg23
I00
sg110
I0
sbsg4032
g0
(g321
g2
Ntp4188
Rp4189
(dp4190
g21
I00
sg109
I00
sg23
I00
sg110
I1
sbsg4033
g0
(g321
g2
Ntp4191
Rp4192
(dp4193
g21
I00
sg109
I00
sg23
I00
sg110
I0
sbsg4034
g0
(g1015
g2
Ntp4194
Rp4195
(dp4196
g21
I00
sg109
I00
sg23
I00
sg19
(lp4197
g4070
ag4071
asg22
Nsg4070
g0
(g321
g2
Ntp4198
Rp4199
(dp4200
g21
I00
sg109
I00
sg23
I00
sg110
I0
sbsg4071
g0
(g1015
g2
Ntp4201
Rp4202
(dp4203
g21
I00
sg109
I00
sg23
I00
sg19
(lp4204
sg22
g0
(g4079
g2
Ntp4205
Rp4206
(dp4207
g21
I00
sg109
I00
sg23
I00
sg935
g321
sg936
Nsbsbsbsg4035
g0
(g325
g145
(lp4208
g4084
atp4209
Rp4210
(dp4211
g21
I00
sg109
I00
sg23
I00
sg333
I1
sbsg4036
g0
(g184
g2
Ntp4212
Rp4213
(dp4214
g21
I00
sg109
I00
sg23
I00
sg110
I00
sbsg4037
g0
(g715
g2
Ntp4215
Rp4216
(dp4217
g21
I00
sg109
I00
sg23
I00
sg110
g4094
sbsg4038
g0
(g184
g2
Ntp4218
Rp4219
(dp4220
g21
I00
sg109
I00
sg23
I00
sg110
I00
sbsg4039
g0
(g184
g2
Ntp4221
Rp4222
(dp4223
g21
I00
sg109
I00
sg23
I00
sg110
I01
sbsg4040
g0
(g184
g2
Ntp4224
Rp4225
(dp4226
g21
I00
sg109
I00
sg23
I00
sg110
I00
sbsg4041
g0
(g184
g2
Ntp4227
Rp4228
(dp4229
g21
I00
sg109
I00
sg23
I00
sg110
I01
sbsg4042
g0
(g931
g2
Ntp4230
Rp4231
(dp4232
g21
I00
sg109
I00
sg23
I00
sg935
g321
sg936
Nsbsg4043
g0
(g325
g145
(lp4233
tp4234
Rp4235
(dp4236
g21
I00
sg109
I00
sg23
I00
sg333
I1
sbsg4044
g0
(g325
g145
(lp4237
tp4238
Rp4239
(dp4240
g21
I00
sg109
I00
sg23
I00
sg333
I1
sbsg4045
g0
(g325
g145
(lp4241
tp4242
Rp4243
(dp4244
g21
I00
sg109
I00
sg23
I00
sg333
I1
sbsg4046
g0
(g325
g145
(lp4245
tp4246
Rp4247
(dp4248
g21
I00
sg109
I00
sg23
I00
sg333
I1
sbsg4047
g0
(g325
g145
(lp4249
tp4250
Rp4251
(dp4252
g21
I00
sg109
I00
sg23
I00
sg333
I1
sbsg4048
g0
(g1923
g145
(lp4253
tp4254
Rp4255
(dp4256
g21
I00
sg109
I00
sg23
I00
sg333
I1
sbsg4049
g0
(g325
g145
(lp4257
tp4258
Rp4259
(dp4260
g21
I00
sg109
I00
sg23
I00
sg333
I1
sbsg4050
g0
(g184
g2
Ntp4261
Rp4262
(dp4263
g21
I00
sg109
I00
sg23
I00
sg110
I00
sbsg4051
g0
(g4141
g2
Ntp4264
Rp4265
(dp4266
g21
I00
sg109
I00
sg23
I00
sg935
g184
sg936
Nsbsg4052
g0
(g4141
g2
Ntp4267
Rp4268
(dp4269
g21
I00
sg109
I00
sg23
I00
sg935
g715
sg936
Nsbsg4053
g0
(g4141
g2
Ntp4270
Rp4271
(dp4272
g21
I00
sg109
I00
sg23
I00
sg935
g184
sg936
Nsbsg27
NsbsL140028236344192L
g0
(g1015
g2
Ntp4273
Rp4274
(dp4275
g21
I00
sg109
I00
sg23
I00
sg19
(lp4276
g3985
ag1206
asg22
Nsg3985
g0
(g931
g2
Ntp4277
Rp4278
(dp4279
g21
I00
sg109
I00
sg23
I00
sg935
g305
sg936
Nsbsg1206
g0
(g931
g2
Ntp4280
Rp4281
(dp4282
g21
I00
sg109
I00
sg23
I00
sg935
g0
(g4165
g2
Ntp4283
Rp4284
(dp4285
g4169
(g305
g1015
tp4286
sg4171
Nsg4172
Vallowed(cms.int32,cms.PSet)
p4287
sbsg936
Nsbsg27
NsbsL140028236344384L
g3982
sL140028236342656L
g1821
sL140028225090992L
g3991
sL140028224014416L
g15
sL140028223706544L
g2861
sL140028225312464L
g2905
sL140028225095280L
g2921
sL140028225313904L
g2926
sL140028225314096L
g2934
sL140028223228320L
g2939
sL140028225596912L
g2947
sL140028225311072L
g2984
sL140028225313712L
g2992
sL140028225313760L
g2997
sL140028225314624L
g3005
sL140028225092480L
g3013
sL140028225596192L
g3023
sL140028225312224L
g3028
sL140028225313568L
g3033
sL140028225095856L
g3041
sL140028223706304L
g3046
sL140028225096144L
g3057
sL140028225596240L
g3066
sL140028223228608L
g3075
sL140028223227456L
g1833
sL140028223468016L
g3083
sL140028223229904L
g3094
sL140028223229712L
g3103
sL140028223226736L
g3112
sL140028225089888L
g3129
sL140028223467776L
g3166
sL140028223227600L
g3196
sL140028225094800L
g3215
sL140028225597104L
g3227
sL140028225596768L
g3244
sL140028225093696L
g3259
sL140028223423824L
g3268
sL140028261816496L
g3288
sL140028238023792L
g3308
sL140028261815296L
g3324
sL140028261816448L
g1855
sL140028220904496L
g3420
sL140028225012448L
g4000
sL140028261141664L
g3428
sL140028261140704L
g3437
sL140028225013456L
g1872
sL140028220903632L
g2185
sL140028239709424L
g1952
sL140028221043136L
g3445
sL140028221025824L
g3463
sL140028221066784L
g3535
sL140028221066688L
g3613
sL140028220948192L
g2122
sL140028220948288L
g3972
sL140028239917984L
g3639
sL140028221065104L
g3654
sL140028221044912L
g3663
sL140028221044000L
g0
(g2859
g2
Ntp4288
Rp4289
(dp4290
g17
g3665
sg19
(lp4291
g3667
ag3668
ag1955
asg21
I00
sg22
Nsg3667
g0
(g715
g2
Ntp4292
Rp4293
(dp4294
g21
I00
sg109
I01
sg23
I01
sg110
VforRawToDigi
p4295
sbsg23
I00
sg3668
g0
(g1923
g145
(lp4296
g0
(g1015
g2
Ntp4297
Rp4298
(dp4299
g21
I00
sg109
I01
sg23
I00
sg19
(lp4300
g3677
ag3678
asg22
Nsg3677
g0
(g715
g2
Ntp4301
Rp4302
(dp4303
g21
I00
sg109
I01
sg23
I00
sg110
g3682
sbsg3678
g0
(g715
g2
Ntp4304
Rp4305
(dp4306
g21
I00
sg109
I01
sg23
I00
sg110
g124
sbsbag0
(g1015
g2
Ntp4307
Rp4308
(dp4309
g21
I00
sg109
I01
sg23
I00
sg19
(lp4310
g3677
ag3678
asg22
Nsg3677
g0
(g715
g2
Ntp4311
Rp4312
(dp4313
g21
I00
sg109
I01
sg23
I00
sg110
g3693
sbsg3678
g0
(g715
g2
Ntp4314
Rp4315
(dp4316
g21
I00
sg109
I01
sg23
I00
sg110
g124
sbsbatp4317
Rp4318
(dp4319
g21
I00
sg109
I01
sg23
I00
sg333
I1
sbsg1955
g0
(g715
g2
Ntp4320
Rp4321
(dp4322
g21
I00
sg109
I01
sg23
I01
sg110
g4295
sbsg24
V/cvmfs/cms-ib.cern.ch/sw/x86_64/week1/el8_amd64_gcc12/cms/cmssw/CMSSW_14_1_X_2024-06-09-2300/src/CalibTracker/SiPixelESProducers/python/siPixelQualityForRawToDigiESProducer_cfi.py
p4323
sg26
I5
sg27
NsbsL140028221023280L
g3705
sL140028220956000L
g3748
sL140028221022368L
g3801
sL140028221045536L
g3840
sL140028220904544L
g3946
sL140028221024768L
g3952
sL140028220678592L
g4027
sL140028220798672L
g30
sL140028225139136L
g371
sL140028220418416L
g639
sL140028220402992L
g4153
sL140028220748080L
g947
ssV_Process__InExtendCall
p4324
I00
sV_Process__partialschedules
p4325
(dp4326
sV_Process__isStrict
p4327
I00
sV_Process__modifiers
p4328
(g0
(cFWCore.ParameterSet.Config
ModifierChain
p4329
g2
Ntp4330
Rp4331
(dp4332
V_ModifierChain__chosen
p4333
I01
sV_ModifierChain__chain
p4334
(g0
(g4329
g2
Ntp4335
Rp4336
(dp4337
g4333
I01
sg4334
(g0
(g4329
g2
Ntp4338
Rp4339
(dp4340
g4333
I01
sg4334
(g0
(g4329
g2
Ntp4341
Rp4342
(dp4343
g4333
I01
sg4334
(g0
(cFWCore.ParameterSet.Config
Modifier
p4344
g2
Ntp4345
Rp4346
(dp4347
V_Modifier__processModifiers
p4348
(lp4349
sV_Modifier__chosen
p4350
I01
sbg0
(g4344
g2
Ntp4351
Rp4352
(dp4353
g4348
(lp4354
sg4350
I01
sbg0
(g4344
g2
Ntp4355
Rp4356
(dp4357
g4348
(lp4358
sg4350
I01
sbg0
(g4344
g2
Ntp4359
Rp4360
(dp4361
g4348
(lp4362
sg4350
I01
sbg0
(g4344
g2
Ntp4363
Rp4364
(dp4365
g4348
(lp4366
sg4350
I01
sbtp4367
sbg0
(g4344
g2
Ntp4368
Rp4369
(dp4370
g4348
(lp4371
sg4350
I01
sbg0
(g4344
g2
Ntp4372
Rp4373
(dp4374
g4348
(lp4375
sg4350
I01
sbg0
(g4344
g2
Ntp4376
Rp4377
(dp4378
g4348
(lp4379
sg4350
I01
sbg0
(g4344
g2
Ntp4380
Rp4381
(dp4382
g4348
(lp4383
sg4350
I01
sbg0
(g4344
g2
Ntp4384
Rp4385
(dp4386
g4348
(lp4387
sg4350
I01
sbg0
(g4344
g2
Ntp4388
Rp4389
(dp4390
g4348
(lp4391
sg4350
I01
sbg0
(g4344
g2
Ntp4392
Rp4393
(dp4394
g4348
(lp4395
sg4350
I01
sbg0
(g4329
g2
Ntp4396
Rp4397
(dp4398
g4333
I01
sg4334
(g0
(g4344
g2
Ntp4399
Rp4400
(dp4401
g4348
(lp4402
sg4350
I01
sbg0
(g4344
g2
Ntp4403
Rp4404
(dp4405
g4348
(lp4406
sg4350
I01
sbg0
(g4344
g2
Ntp4407
Rp4408
(dp4409
g4348
(lp4410
sg4350
I01
sbg0
(g4344
g2
Ntp4411
Rp4412
(dp4413
g4348
(lp4414
sg4350
I01
sbg0
(g4344
g2
Ntp4415
Rp4416
(dp4417
g4348
(lp4418
sg4350
I01
sbg0
(g4344
g2
Ntp4419
Rp4420
(dp4421
g4348
(lp4422
sg4350
I01
sbg0
(g4344
g2
Ntp4423
Rp4424
(dp4425
g4348
(lp4426
sg4350
I01
sbtp4427
sbg0
(g4344
g2
Ntp4428
Rp4429
(dp4430
g4348
(lp4431
sg4350
I01
sbg0
(g4344
g2
Ntp4432
Rp4433
(dp4434
g4348
(lp4435
sg4350
I01
sbg0
(g4344
g2
Ntp4436
Rp4437
(dp4438
g4348
(lp4439
sg4350
I01
sbg0
(g4344
g2
Ntp4440
Rp4441
(dp4442
g4348
(lp4443
sg4350
I01
sbtp4444
sbg0
(g4344
g2
Ntp4445
Rp4446
(dp4447
g4348
(lp4448
sg4350
I01
sbg0
(g4344
g2
Ntp4449
Rp4450
(dp4451
g4348
(lp4452
sg4350
I01
sbg0
(g4344
g2
Ntp4453
Rp4454
(dp4455
g4348
(lp4456
sg4350
I01
sbg0
(g4344
g2
Ntp4457
Rp4458
(dp4459
g4348
(lp4460
sg4350
I01
sbg0
(g4344
g2
Ntp4461
Rp4462
(dp4463
g4348
(lp4464
sg4350
I01
sbg0
(g4344
g2
Ntp4465
Rp4466
(dp4467
g4348
(lp4468
sg4350
I01
sbg0
(g4344
g2
Ntp4469
Rp4470
(dp4471
g4348
(lp4472
sg4350
I01
sbg0
(g4344
g2
Ntp4473
Rp4474
(dp4475
g4348
(lp4476
sg4350
I01
sbtp4477
sbg0
(g4344
g2
Ntp4478
Rp4479
(dp4480
g4348
(lp4481
sg4350
I01
sbg0
(g4344
g2
Ntp4482
Rp4483
(dp4484
g4348
(lp4485
sg4350
I01
sbg0
(g4344
g2
Ntp4486
Rp4487
(dp4488
g4348
(lp4489
sg4350
I01
sbg0
(g4344
g2
Ntp4490
Rp4491
(dp4492
g4348
(lp4493
sg4350
I01
sbg0
(g4344
g2
Ntp4494
Rp4495
(dp4496
g4348
(lp4497
sg4350
I01
sbg0
(g4344
g2
Ntp4498
Rp4499
(dp4500
g4348
(lp4501
sg4350
I01
sbg0
(g4344
g2
Ntp4502
Rp4503
(dp4504
g4348
(lp4505
sg4350
I01
sbg0
(g4344
g2
Ntp4506
Rp4507
(dp4508
g4348
(lp4509
sg4350
I01
sbg0
(g4344
g2
Ntp4510
Rp4511
(dp4512
g4348
(lp4513
sg4350
I01
sbg0
(g4344
g2
Ntp4514
Rp4515
(dp4516
g4348
(lp4517
sg4350
I01
sbg0
(g4344
g2
Ntp4518
Rp4519
(dp4520
g4348
(lp4521
sg4350
I01
sbg0
(g4344
g2
Ntp4522
Rp4523
(dp4524
g4348
(lp4525
sg4350
I01
sbtp4526
sbtp4527
sV_Process__accelerators
p4528
(dp4529
sg3980
g3982
sg990
g993
sg1264
g1266
sg1818
g1821
sg1524
g1526
sg3989
g3991
sg12
g15
sg2858
g2861
sg2903
g2905
sg2919
g2921
sg2924
g2926
sg2932
g2934
sg2937
g2939
sg2945
g2947
sg2982
g2984
sg2990
g2992
sg2995
g2997
sg3003
g3005
sg3011
g3013
sg3021
g3023
sg3026
g3028
sg3031
g3033
sg3039
g3041
sg3044
g3046
sg3055
g3057
sg3064
g3066
sg3073
g3075
sg1831
g1833
sg3081
g3083
sg3092
g3094
sg3101
g3103
sg3110
g3112
sg3127
g3129
sg3164
g3166
sg3194
g3196
sg3213
g3215
sg3225
g3227
sg3242
g3244
sg3257
g3259
sg3266
g3268
sg3286
g3288
sg3306
g3308
sg3322
g3324
sg1853
g1855
sg3418
g3420
sg3998
g4000
sg3426
g3428
sg3435
g3437
sg1870
g1872
sg2134
g2185
sg1950
g1952
sg3443
g3445
sg3461
g3463
sg3533
g3535
sg3611
g3613
sg2120
g2122
sg3969
g3972
sg3637
g3639
sg3652
g3654
sg3661
g3663
sg3703
g3705
sg3746
g3748
sg3799
g3801
sg3838
g3840
sg3944
g3946
sg3950
g3952
sg4025
g4027
sg28
g30
sg369
g371
sg636
g639
sVsource
p4530
g619
sg621
g619
sg4151
g4153
sg1806
g1808
sg944
g947
sb.