ccopy_reg
_reconstructor
p0
(cFWCore.ParameterSet.Config
Process
p1
c__builtin__
object
p2
Ntp3
Rp4
(dp5
V_Process__name
p6
VANALYSIS
p7
sV_Process__filters
p8
(dp9
sV_Process__producers
p10
(dp11
VrandomEngineStateProducer
p12
g0
(cFWCore.ParameterSet.Modules
EDProducer
p13
g2
Ntp14
Rp15
(dp16
V_TypedParameterizable__type
p17
VRandomEngineStateProducer
p18
sV_Parameterizable__parameterNames
p19
(lp20
sV_isFrozen
p21
I00
sV_Parameterizable__validator
p22
NsV_isModified
p23
I00
sV_filename
p24
V/cvmfs/cms-ib.cern.ch/sw/x86_64/week0/el8_amd64_gcc12/cms/cmssw/CMSSW_14_1_X_2024-06-16-0000/src/IOMC/RandomEngine/python/IOMC_cff.py
p25
sV_lineNumber
p26
I172
sV_Labelable__label
p27
g12
sbsVcalotowermaker
p28
g0
(g13
g2
Ntp29
Rp30
(dp31
g17
VCaloTowersCreator
p32
sg19
(lp33
VEBSumThreshold
p34
aVHF2Weight
p35
aVEBWeight
p36
aVhfInput
p37
aVEESumThreshold
p38
aVHOThreshold0
p39
aVHOThresholdPlus1
p40
aVHOThresholdMinus1
p41
aVHOThresholdPlus2
p42
aVHOThresholdMinus2
p43
aVHBGrid
p44
aVHBThreshold1
p45
aVHBThreshold2
p46
aVHBThreshold
p47
aVEEWeights
p48
aVHF1Threshold
p49
aVHF2Weights
p50
aVHOWeights
p51
aVEEGrid
p52
aVHEDWeight
p53
aVEEWeight
p54
aVUseHO
p55
aVHBWeights
p56
aVHESWeight
p57
aVHF1Weight
p58
aVHF2Grid
p59
aVHEDWeights
p60
aVHF1Grid
p61
aVEBWeights
p62
aVHOWeight
p63
aVEBThreshold
p64
aVEEThreshold
p65
aVUseEtEBTreshold
p66
aVUseSymEBTreshold
p67
aVUseEtEETreshold
p68
aVUseSymEETreshold
p69
aVhbheInput
p70
aVHcalThreshold
p71
aVHF2Threshold
p72
aVHESThreshold1
p73
aVHESThreshold
p74
aVHF1Weights
p75
aVhoInput
p76
aVHESGrid
p77
aVHESWeights
p78
aVHEDThreshold1
p79
aVHEDThreshold
p80
aVEcutTower
p81
aVHEDGrid
p82
aVecalInputs
p83
aVHBWeight
p84
aVHOGrid
p85
aVEBGrid
p86
aVMomConstrMethod
p87
aVMomHBDepth
p88
aVMomHEDepth
p89
aVMomEBDepth
p90
aVMomEEDepth
p91
aVHcalAcceptSeverityLevel
p92
aVEcalRecHitSeveritiesToBeExcluded
p93
aVUseHcalRecoveredHits
p94
aVUseEcalRecoveredHits
p95
aVUseRejectedHitsOnly
p96
aVHcalAcceptSeverityLevelForRejectedHit
p97
aVEcalSeveritiesToBeUsedInBadTowers
p98
aVUseRejectedRecoveredHcalHits
p99
aVUseRejectedRecoveredEcalHits
p100
aVmissingHcalRescaleFactorForEcal
p101
aVAllowMissingInputs
p102
aVHcalPhase
p103
aVusePFThresholdsFromDB
p104
asg21
I00
sg22
Nsg34
g0
(cFWCore.ParameterSet.Types
double
p105
g2
Ntp106
Rp107
(dp108
g21
I00
sV_ParameterTypeBase__isTracked
p109
I01
sg23
I00
sV_value
p110
F0.2
sbsg23
I01
sg35
g0
(g105
g2
Ntp111
Rp112
(dp113
g21
I00
sg109
I01
sg23
I00
sg110
F1.0
sbsg36
g0
(g105
g2
Ntp114
Rp115
(dp116
g21
I00
sg109
I01
sg23
I00
sg110
F1.0
sbsg37
g0
(cFWCore.ParameterSet.Types
InputTag
p117
g2
Ntp118
Rp119
(dp120
g21
I00
sg109
I01
sg23
I00
sV_InputTag__moduleLabel
p121
Vhfreco
p122
sV_InputTag__productInstance
p123
V
p124
sV_InputTag__processName
p125
g124
sbsg38
g0
(g105
g2
Ntp126
Rp127
(dp128
g21
I00
sg109
I01
sg23
I00
sg110
F0.45
sbsg39
g0
(g105
g2
Ntp129
Rp130
(dp131
g21
I00
sg109
I01
sg23
I00
sg110
F1.1
sbsg40
g0
(g105
g2
Ntp132
Rp133
(dp134
g21
I00
sg109
I01
sg23
I00
sg110
F3.5
sbsg41
g0
(g105
g2
Ntp135
Rp136
(dp137
g21
I00
sg109
I01
sg23
I00
sg110
F3.5
sbsg42
g0
(g105
g2
Ntp138
Rp139
(dp140
g21
I00
sg109
I01
sg23
I00
sg110
F3.5
sbsg43
g0
(g105
g2
Ntp141
Rp142
(dp143
g21
I00
sg109
I01
sg23
I00
sg110
F3.5
sbsg44
g0
(cFWCore.ParameterSet.Types
vdouble
p144
c__builtin__
list
p145
(lp146
F-1.0
aF1.0
aF10.0
aF100.0
aF1000.0
atp147
Rp148
(dp149
g21
I00
sg109
I01
sg23
I00
sbsg45
g0
(g105
g2
Ntp150
Rp151
(dp152
g21
I00
sg109
I01
sg23
I01
sg110
F0.1
sbsg46
g0
(g105
g2
Ntp153
Rp154
(dp155
g21
I00
sg109
I01
sg23
I01
sg110
F0.2
sbsg47
g0
(g105
g2
Ntp156
Rp157
(dp158
g21
I00
sg109
I01
sg23
I01
sg110
F0.3
sbsg48
g0
(g144
g145
(lp159
F1.0
aF1.0
aF1.0
aF1.0
aF1.0
atp160
Rp161
(dp162
g21
I00
sg109
I01
sg23
I00
sbsg49
g0
(g105
g2
Ntp163
Rp164
(dp165
g21
I00
sg109
I01
sg23
I00
sg110
F0.5
sbsg50
g0
(g144
g145
(lp166
F1.0
aF1.0
aF1.0
aF1.0
aF1.0
atp167
Rp168
(dp169
g21
I00
sg109
I01
sg23
I00
sbsg51
g0
(g144
g145
(lp170
F1.0
aF1.0
aF1.0
aF1.0
aF1.0
atp171
Rp172
(dp173
g21
I00
sg109
I01
sg23
I00
sbsg52
g0
(g144
g145
(lp174
F-1.0
aF1.0
aF10.0
aF100.0
aF1000.0
atp175
Rp176
(dp177
g21
I00
sg109
I01
sg23
I00
sbsg53
g0
(g105
g2
Ntp178
Rp179
(dp180
g21
I00
sg109
I01
sg23
I00
sg110
F1.0
sbsg54
g0
(g105
g2
Ntp181
Rp182
(dp183
g21
I00
sg109
I01
sg23
I00
sg110
F1.0
sbsg55
g0
(cFWCore.ParameterSet.Types
bool
p184
g2
Ntp185
Rp186
(dp187
g21
I00
sg109
I01
sg23
I00
sg110
I01
sbsg56
g0
(g144
g145
(lp188
F1.0
aF1.0
aF1.0
aF1.0
aF1.0
atp189
Rp190
(dp191
g21
I00
sg109
I01
sg23
I00
sbsg57
g0
(g105
g2
Ntp192
Rp193
(dp194
g21
I00
sg109
I01
sg23
I00
sg110
F1.0
sbsg58
g0
(g105
g2
Ntp195
Rp196
(dp197
g21
I00
sg109
I01
sg23
I00
sg110
F1.0
sbsg59
g0
(g144
g145
(lp198
F-1.0
aF1.0
aF10.0
aF100.0
aF1000.0
atp199
Rp200
(dp201
g21
I00
sg109
I01
sg23
I00
sbsg60
g0
(g144
g145
(lp202
F1.0
aF1.0
aF1.0
aF1.0
aF1.0
atp203
Rp204
(dp205
g21
I00
sg109
I01
sg23
I00
sbsg61
g0
(g144
g145
(lp206
F-1.0
aF1.0
aF10.0
aF100.0
aF1000.0
atp207
Rp208
(dp209
g21
I00
sg109
I01
sg23
I00
sbsg62
g0
(g144
g145
(lp210
F1.0
aF1.0
aF1.0
aF1.0
aF1.0
atp211
Rp212
(dp213
g21
I00
sg109
I01
sg23
I00
sbsg63
g0
(g105
g2
Ntp214
Rp215
(dp216
g21
I00
sg109
I01
sg23
I00
sg110
F1.0
sbsg64
g0
(g105
g2
Ntp217
Rp218
(dp219
g21
I00
sg109
I01
sg23
I00
sg110
F0.07
sbsg65
g0
(g105
g2
Ntp220
Rp221
(dp222
g21
I00
sg109
I01
sg23
I00
sg110
F0.3
sbsg66
g0
(g184
g2
Ntp223
Rp224
(dp225
g21
I00
sg109
I01
sg23
I00
sg110
I00
sbsg67
g0
(g184
g2
Ntp226
Rp227
(dp228
g21
I00
sg109
I01
sg23
I00
sg110
I01
sbsg68
g0
(g184
g2
Ntp229
Rp230
(dp231
g21
I00
sg109
I01
sg23
I00
sg110
I00
sbsg69
g0
(g184
g2
Ntp232
Rp233
(dp234
g21
I00
sg109
I01
sg23
I00
sg110
I01
sbsg70
g0
(g117
g2
Ntp235
Rp236
(dp237
g21
I00
sg109
I01
sg23
I00
sg121
Vhbhereco
p238
sg123
g124
sg125
g124
sbsg71
g0
(g105
g2
Ntp239
Rp240
(dp241
g21
I00
sg109
I01
sg23
I00
sg110
F-1000.0
sbsg72
g0
(g105
g2
Ntp242
Rp243
(dp244
g21
I00
sg109
I01
sg23
I00
sg110
F0.85
sbsg73
g0
(g105
g2
Ntp245
Rp246
(dp247
g21
I00
sg109
I01
sg23
I01
sg110
F0.1
sbsg74
g0
(g105
g2
Ntp248
Rp249
(dp250
g21
I00
sg109
I01
sg23
I01
sg110
F0.2
sbsg75
g0
(g144
g145
(lp251
F1.0
aF1.0
aF1.0
aF1.0
aF1.0
atp252
Rp253
(dp254
g21
I00
sg109
I01
sg23
I00
sbsg76
g0
(g117
g2
Ntp255
Rp256
(dp257
g21
I00
sg109
I01
sg23
I00
sg121
Vhoreco
p258
sg123
g124
sg125
g124
sbsg77
g0
(g144
g145
(lp259
F-1.0
aF1.0
aF10.0
aF100.0
aF1000.0
atp260
Rp261
(dp262
g21
I00
sg109
I01
sg23
I00
sbsg78
g0
(g144
g145
(lp263
F1.0
aF1.0
aF1.0
aF1.0
aF1.0
atp264
Rp265
(dp266
g21
I00
sg109
I01
sg23
I00
sbsg79
g0
(g105
g2
Ntp267
Rp268
(dp269
g21
I00
sg109
I01
sg23
I01
sg110
F0.1
sbsg80
g0
(g105
g2
Ntp270
Rp271
(dp272
g21
I00
sg109
I01
sg23
I01
sg110
F0.2
sbsg81
g0
(g105
g2
Ntp273
Rp274
(dp275
g21
I00
sg109
I01
sg23
I00
sg110
F-1000.0
sbsg82
g0
(g144
g145
(lp276
F-1.0
aF1.0
aF10.0
aF100.0
aF1000.0
atp277
Rp278
(dp279
g21
I00
sg109
I01
sg23
I00
sbsg83
g0
(cFWCore.ParameterSet.Types
VInputTag
p280
g145
(lp281
g0
(g117
g2
Ntp282
Rp283
(dp284
g21
I00
sg109
I01
sg23
I00
sg121
VecalRecHit
p285
sg123
VEcalRecHitsEB
p286
sg125
g124
sbag0
(g117
g2
Ntp287
Rp288
(dp289
g21
I00
sg109
I01
sg23
I00
sg121
g285
sg123
VEcalRecHitsEE
p290
sg125
g124
sbatp291
Rp292
(dp293
g21
I00
sg109
I01
sg23
I00
sbsg84
g0
(g105
g2
Ntp294
Rp295
(dp296
g21
I00
sg109
I01
sg23
I00
sg110
F1.0
sbsg85
g0
(g144
g145
(lp297
F-1.0
aF1.0
aF10.0
aF100.0
aF1000.0
atp298
Rp299
(dp300
g21
I00
sg109
I01
sg23
I00
sbsg86
g0
(g144
g145
(lp301
F-1.0
aF1.0
aF10.0
aF100.0
aF1000.0
atp302
Rp303
(dp304
g21
I00
sg109
I01
sg23
I00
sbsg87
g0
(cFWCore.ParameterSet.Types
int32
p305
g2
Ntp306
Rp307
(dp308
g21
I00
sg109
I01
sg23
I00
sg110
I1
sbsg88
g0
(g105
g2
Ntp309
Rp310
(dp311
g21
I00
sg109
I01
sg23
I00
sg110
F0.2
sbsg89
g0
(g105
g2
Ntp312
Rp313
(dp314
g21
I00
sg109
I01
sg23
I00
sg110
F0.4
sbsg90
g0
(g105
g2
Ntp315
Rp316
(dp317
g21
I00
sg109
I01
sg23
I00
sg110
F0.3
sbsg91
g0
(g105
g2
Ntp318
Rp319
(dp320
g21
I00
sg109
I01
sg23
I00
sg110
F0.0
sbsg92
g0
(cFWCore.ParameterSet.Types
uint32
p321
g2
Ntp322
Rp323
(dp324
g21
I00
sg109
I01
sg23
I00
sg110
I9
sbsg93
g0
(cFWCore.ParameterSet.Types
vstring
p325
g145
(lp326
VkTime
p327
aVkWeird
p328
aVkBad
p329
atp330
Rp331
(dp332
g21
I00
sg109
I01
sg23
I00
sV_nPerLine
p333
I1
sbsg94
g0
(g184
g2
Ntp334
Rp335
(dp336
g21
I00
sg109
I01
sg23
I00
sg110
I01
sbsg95
g0
(g184
g2
Ntp337
Rp338
(dp339
g21
I00
sg109
I01
sg23
I00
sg110
I00
sbsg96
g0
(g184
g2
Ntp340
Rp341
(dp342
g21
I00
sg109
I01
sg23
I00
sg110
I00
sbsg97
g0
(g321
g2
Ntp343
Rp344
(dp345
g21
I00
sg109
I01
sg23
I00
sg110
I9999
sbsg98
g0
(g325
g145
(lp346
tp347
Rp348
(dp349
g21
I00
sg109
I01
sg23
I00
sg333
I1
sbsg99
g0
(g184
g2
Ntp350
Rp351
(dp352
g21
I00
sg109
I01
sg23
I00
sg110
I01
sbsg100
g0
(g184
g2
Ntp353
Rp354
(dp355
g21
I00
sg109
I01
sg23
I00
sg110
I00
sbsg101
g0
(g105
g2
Ntp356
Rp357
(dp358
g21
I00
sg109
I01
sg23
I00
sg110
I0
sbsg102
g0
(g184
g2
Ntp359
Rp360
(dp361
g21
I00
sg109
I01
sg23
I00
sg110
I00
sbsg103
g0
(g305
g2
Ntp362
Rp363
(dp364
g21
I00
sg109
I01
sg23
I01
sg110
I1
sbsg104
g0
(g184
g2
Ntp365
Rp366
(dp367
g21
I00
sg109
I01
sg23
I01
sg110
I01
sbsg24
V/cvmfs/cms-ib.cern.ch/sw/x86_64/week0/el8_amd64_gcc12/cms/cmssw/CMSSW_14_1_X_2024-06-16-0000/src/RecoLocalCalo/CaloTowersCreator/python/calotowermaker_cfi.py
p368
sg26
I3
sg27
g28
sbsVtowerMakerAll
p369
g0
(g13
g2
Ntp370
Rp371
(dp372
g17
g32
sg19
(lp373
g34
ag35
ag36
ag37
ag38
ag39
ag40
ag41
ag42
ag43
ag44
ag45
ag46
ag47
ag48
ag49
ag50
ag51
ag52
ag53
ag54
ag55
ag56
ag57
ag58
ag59
ag60
ag61
ag62
ag63
ag64
ag65
ag66
ag67
ag68
ag69
ag70
ag71
ag72
ag73
ag74
ag75
ag76
ag77
ag78
ag79
ag80
ag81
ag82
ag83
ag84
ag85
ag86
ag87
ag88
ag89
ag90
ag91
ag92
ag93
ag94
ag95
ag96
ag97
ag98
ag99
ag100
ag101
ag102
ag103
ag104
asg21
I00
sg22
Nsg34
g0
(g105
g2
Ntp374
Rp375
(dp376
g21
I00
sg109
I01
sg23
I00
sg110
F0.2
sbsg23
I01
sg35
g0
(g105
g2
Ntp377
Rp378
(dp379
g21
I00
sg109
I01
sg23
I00
sg110
F1.0
sbsg36
g0
(g105
g2
Ntp380
Rp381
(dp382
g21
I00
sg109
I01
sg23
I00
sg110
F1.0
sbsg37
g0
(g117
g2
Ntp383
Rp384
(dp385
g21
I00
sg109
I01
sg23
I00
sg121
Vnone
p386
sg123
g124
sg125
g124
sbsg38
g0
(g105
g2
Ntp387
Rp388
(dp389
g21
I00
sg109
I01
sg23
I00
sg110
F0.45
sbsg39
g0
(g105
g2
Ntp390
Rp391
(dp392
g21
I00
sg109
I01
sg23
I00
sg110
F1.1
sbsg40
g0
(g105
g2
Ntp393
Rp394
(dp395
g21
I00
sg109
I01
sg23
I00
sg110
F3.5
sbsg41
g0
(g105
g2
Ntp396
Rp397
(dp398
g21
I00
sg109
I01
sg23
I00
sg110
F3.5
sbsg42
g0
(g105
g2
Ntp399
Rp400
(dp401
g21
I00
sg109
I01
sg23
I00
sg110
F3.5
sbsg43
g0
(g105
g2
Ntp402
Rp403
(dp404
g21
I00
sg109
I01
sg23
I00
sg110
F3.5
sbsg44
g0
(g144
g145
(lp405
F-1.0
aF1.0
aF10.0
aF100.0
aF1000.0
atp406
Rp407
(dp408
g21
I00
sg109
I01
sg23
I00
sbsg45
g0
(g105
g2
Ntp409
Rp410
(dp411
g21
I00
sg109
I01
sg23
I01
sg110
F0.1
sbsg46
g0
(g105
g2
Ntp412
Rp413
(dp414
g21
I00
sg109
I01
sg23
I01
sg110
F0.2
sbsg47
g0
(g105
g2
Ntp415
Rp416
(dp417
g21
I00
sg109
I01
sg23
I01
sg110
F0.3
sbsg48
g0
(g144
g145
(lp418
F1.0
aF1.0
aF1.0
aF1.0
aF1.0
atp419
Rp420
(dp421
g21
I00
sg109
I01
sg23
I00
sbsg49
g0
(g105
g2
Ntp422
Rp423
(dp424
g21
I00
sg109
I01
sg23
I00
sg110
F0.5
sbsg50
g0
(g144
g145
(lp425
F1.0
aF1.0
aF1.0
aF1.0
aF1.0
atp426
Rp427
(dp428
g21
I00
sg109
I01
sg23
I00
sbsg51
g0
(g144
g145
(lp429
F1.0
aF1.0
aF1.0
aF1.0
aF1.0
atp430
Rp431
(dp432
g21
I00
sg109
I01
sg23
I00
sbsg52
g0
(g144
g145
(lp433
F-1.0
aF1.0
aF10.0
aF100.0
aF1000.0
atp434
Rp435
(dp436
g21
I00
sg109
I01
sg23
I00
sbsg53
g0
(g105
g2
Ntp437
Rp438
(dp439
g21
I00
sg109
I01
sg23
I00
sg110
F1.0
sbsg54
g0
(g105
g2
Ntp440
Rp441
(dp442
g21
I00
sg109
I01
sg23
I00
sg110
F1.0
sbsg55
g0
(g184
g2
Ntp443
Rp444
(dp445
g21
I00
sg109
I01
sg23
I00
sg110
I01
sbsg56
g0
(g144
g145
(lp446
F1.0
aF1.0
aF1.0
aF1.0
aF1.0
atp447
Rp448
(dp449
g21
I00
sg109
I01
sg23
I00
sbsg57
g0
(g105
g2
Ntp450
Rp451
(dp452
g21
I00
sg109
I01
sg23
I00
sg110
F1.0
sbsg58
g0
(g105
g2
Ntp453
Rp454
(dp455
g21
I00
sg109
I01
sg23
I00
sg110
F1.0
sbsg59
g0
(g144
g145
(lp456
F-1.0
aF1.0
aF10.0
aF100.0
aF1000.0
atp457
Rp458
(dp459
g21
I00
sg109
I01
sg23
I00
sbsg60
g0
(g144
g145
(lp460
F1.0
aF1.0
aF1.0
aF1.0
aF1.0
atp461
Rp462
(dp463
g21
I00
sg109
I01
sg23
I00
sbsg61
g0
(g144
g145
(lp464
F-1.0
aF1.0
aF10.0
aF100.0
aF1000.0
atp465
Rp466
(dp467
g21
I00
sg109
I01
sg23
I00
sbsg62
g0
(g144
g145
(lp468
F1.0
aF1.0
aF1.0
aF1.0
aF1.0
atp469
Rp470
(dp471
g21
I00
sg109
I01
sg23
I00
sbsg63
g0
(g105
g2
Ntp472
Rp473
(dp474
g21
I00
sg109
I01
sg23
I00
sg110
F1.0
sbsg64
g0
(g105
g2
Ntp475
Rp476
(dp477
g21
I00
sg109
I01
sg23
I00
sg110
F0.07
sbsg65
g0
(g105
g2
Ntp478
Rp479
(dp480
g21
I00
sg109
I01
sg23
I00
sg110
F0.3
sbsg66
g0
(g184
g2
Ntp481
Rp482
(dp483
g21
I00
sg109
I01
sg23
I00
sg110
I00
sbsg67
g0
(g184
g2
Ntp484
Rp485
(dp486
g21
I00
sg109
I01
sg23
I00
sg110
I01
sbsg68
g0
(g184
g2
Ntp487
Rp488
(dp489
g21
I00
sg109
I01
sg23
I00
sg110
I00
sbsg69
g0
(g184
g2
Ntp490
Rp491
(dp492
g21
I00
sg109
I01
sg23
I00
sg110
I01
sbsg70
g0
(g117
g2
Ntp493
Rp494
(dp495
g21
I00
sg109
I01
sg23
I00
sg121
g238
sg123
g124
sg125
g124
sbsg71
g0
(g105
g2
Ntp496
Rp497
(dp498
g21
I00
sg109
I01
sg23
I00
sg110
F-1000.0
sbsg72
g0
(g105
g2
Ntp499
Rp500
(dp501
g21
I00
sg109
I01
sg23
I00
sg110
F0.85
sbsg73
g0
(g105
g2
Ntp502
Rp503
(dp504
g21
I00
sg109
I01
sg23
I01
sg110
F0.1
sbsg74
g0
(g105
g2
Ntp505
Rp506
(dp507
g21
I00
sg109
I01
sg23
I01
sg110
F0.2
sbsg75
g0
(g144
g145
(lp508
F1.0
aF1.0
aF1.0
aF1.0
aF1.0
atp509
Rp510
(dp511
g21
I00
sg109
I01
sg23
I00
sbsg76
g0
(g117
g2
Ntp512
Rp513
(dp514
g21
I00
sg109
I01
sg23
I00
sg121
g386
sg123
g124
sg125
g124
sbsg77
g0
(g144
g145
(lp515
F-1.0
aF1.0
aF10.0
aF100.0
aF1000.0
atp516
Rp517
(dp518
g21
I00
sg109
I01
sg23
I00
sbsg78
g0
(g144
g145
(lp519
F1.0
aF1.0
aF1.0
aF1.0
aF1.0
atp520
Rp521
(dp522
g21
I00
sg109
I01
sg23
I00
sbsg79
g0
(g105
g2
Ntp523
Rp524
(dp525
g21
I00
sg109
I01
sg23
I01
sg110
F0.1
sbsg80
g0
(g105
g2
Ntp526
Rp527
(dp528
g21
I00
sg109
I01
sg23
I01
sg110
F0.2
sbsg81
g0
(g105
g2
Ntp529
Rp530
(dp531
g21
I00
sg109
I01
sg23
I00
sg110
F-1000.0
sbsg82
g0
(g144
g145
(lp532
F-1.0
aF1.0
aF10.0
aF100.0
aF1000.0
atp533
Rp534
(dp535
g21
I00
sg109
I01
sg23
I00
sbsg83
g0
(g280
g145
(lp536
g0
(g117
g2
Ntp537
Rp538
(dp539
g21
I00
sg109
I01
sg23
I00
sg121
g285
sg123
g286
sg125
g124
sbag0
(g117
g2
Ntp540
Rp541
(dp542
g21
I00
sg109
I01
sg23
I00
sg121
g285
sg123
g290
sg125
g124
sbatp543
Rp544
(dp545
g21
I00
sg109
I01
sg23
I00
sbsg84
g0
(g105
g2
Ntp546
Rp547
(dp548
g21
I00
sg109
I01
sg23
I00
sg110
F1.0
sbsg85
g0
(g144
g145
(lp549
F-1.0
aF1.0
aF10.0
aF100.0
aF1000.0
atp550
Rp551
(dp552
g21
I00
sg109
I01
sg23
I00
sbsg86
g0
(g144
g145
(lp553
F-1.0
aF1.0
aF10.0
aF100.0
aF1000.0
atp554
Rp555
(dp556
g21
I00
sg109
I01
sg23
I00
sbsg87
g0
(g305
g2
Ntp557
Rp558
(dp559
g21
I00
sg109
I01
sg23
I00
sg110
I1
sbsg88
g0
(g105
g2
Ntp560
Rp561
(dp562
g21
I00
sg109
I01
sg23
I00
sg110
F0.2
sbsg89
g0
(g105
g2
Ntp563
Rp564
(dp565
g21
I00
sg109
I01
sg23
I00
sg110
F0.4
sbsg90
g0
(g105
g2
Ntp566
Rp567
(dp568
g21
I00
sg109
I01
sg23
I00
sg110
F0.3
sbsg91
g0
(g105
g2
Ntp569
Rp570
(dp571
g21
I00
sg109
I01
sg23
I00
sg110
F0.0
sbsg92
g0
(g321
g2
Ntp572
Rp573
(dp574
g21
I00
sg109
I01
sg23
I00
sg110
I9
sbsg93
g0
(g325
g145
(lp575
g327
ag328
ag329
atp576
Rp577
(dp578
g21
I00
sg109
I01
sg23
I00
sg333
I1
sbsg94
g0
(g184
g2
Ntp579
Rp580
(dp581
g21
I00
sg109
I01
sg23
I00
sg110
I01
sbsg95
g0
(g184
g2
Ntp582
Rp583
(dp584
g21
I00
sg109
I01
sg23
I00
sg110
I00
sbsg96
g0
(g184
g2
Ntp585
Rp586
(dp587
g21
I00
sg109
I01
sg23
I00
sg110
I00
sbsg97
g0
(g321
g2
Ntp588
Rp589
(dp590
g21
I00
sg109
I01
sg23
I00
sg110
I9999
sbsg98
g0
(g325
g145
(lp591
tp592
Rp593
(dp594
g21
I00
sg109
I01
sg23
I00
sg333
I1
sbsg99
g0
(g184
g2
Ntp595
Rp596
(dp597
g21
I00
sg109
I01
sg23
I00
sg110
I01
sbsg100
g0
(g184
g2
Ntp598
Rp599
(dp600
g21
I00
sg109
I01
sg23
I00
sg110
I00
sbsg101
g0
(g105
g2
Ntp601
Rp602
(dp603
g21
I00
sg109
I01
sg23
I00
sg110
I0
sbsg102
g0
(g184
g2
Ntp604
Rp605
(dp606
g21
I00
sg109
I01
sg23
I01
sg110
I01
sbsg103
g0
(g305
g2
Ntp607
Rp608
(dp609
g21
I00
sg109
I01
sg23
I01
sg110
I1
sbsg104
g0
(g184
g2
Ntp610
Rp611
(dp612
g21
I00
sg109
I01
sg23
I01
sg110
I01
sbsg24
V/afs/cern.ch/user/s/smagedov/CMSSW_14_1_X_2024-06-16-0000/src/isoTrack/isoTrackAlCaCommissioning_cfg.py
p613
sg26
I27
sg27
g369
sbssV_Process__switchproducers
p614
(dp615
sV_Process__source
p616
g0
(cFWCore.ParameterSet.Modules
Source
p617
g2
Ntp618
Rp619
(dp620
g17
VPoolSource
p621
sg19
(lp622
VfileNames
p623
asg21
I00
sg22
Nsg623
g0
(g325
g145
(lp624
V/store/data/Run2024B/Commissioning/ALCARECO/HcalCalIsoTrk-PromptReco-v1/000/379/075/00000/2a67bdd1-76ce-4be0-bf72-41584e8f23a7.root
p625
atp626
Rp627
(dp628
g21
I00
sg109
I00
sg23
I00
sg333
I1
sbsg23
I00
sg24
V/cvmfs/cms-ib.cern.ch/sw/x86_64/week0/el8_amd64_gcc12/cms/cmssw/CMSSW_14_1_X_2024-06-16-0000/src/FWCore/ParameterSet/python/Modules.py
p629
sg26
I195
sbsV_Process__looper
p630
NsV_Process__subProcesses
p631
(lp632
sV_Process__schedule
p633
NsV_Process__analyzers
p634
(dp635
VhcalIsoTrkAnalyzer
p636
g0
(cFWCore.ParameterSet.Modules
EDAnalyzer
p637
g2
Ntp638
Rp639
(dp640
g17
VHcalIsoTrkAnalyzer
p641
sg19
(lp642
Vtriggers
p643
aVprocessName
p644
aVl1Filter
p645
aVl2Filter
p646
aVl3Filter
p647
aVtrackQuality
p648
aVminTrackPt
p649
aVmaxDxyPV
p650
aVmaxDzPV
p651
aVmaxChi2
p652
aVmaxDpOverP
p653
aVminOuterHit
p654
aVminLayerCrossed
p655
aVmaxInMiss
p656
aVmaxOutMiss
p657
aVminimumTrackP
p658
aVconeRadius
p659
aVconeRadiusMIP
p660
aVconeRadiusMIP2
p661
aVconeRadiusMIP3
p662
aVconeRadiusMIP4
p663
aVconeRadiusMIP5
p664
aVmaximumEcalEnergy
p665
aVmaxTrackP
p666
aVslopeTrackP
p667
aVisolationEnergyTight
p668
aVisolationEnergyLoose
p669
aVEBHitEnergyThreshold
p670
aVEEHitEnergyThreshold0
p671
aVEEHitEnergyThreshold1
p672
aVEEHitEnergyThreshold2
p673
aVEEHitEnergyThreshold3
p674
aVEEHitEnergyThresholdLow
p675
aVEEHitEnergyThresholdHigh
p676
aVmomentumLow
p677
aVmomentumHigh
p678
aVprescaleLow
p679
aVprescaleHigh
p680
aVlabelTriggerEvent
p681
aVlabelTriggerResult
p682
aVlabelTrack
p683
aVlabelVertex
p684
aVlabelEBRecHit
p685
aVlabelEERecHit
p686
aVlabelHBHERecHit
p687
aVlabelBeamSpot
p688
aVlabelCaloTower
p689
aVlabelMuon
p690
aValgInputTag
p691
aVextInputTag
p692
aVmoduleName
p693
aVproducerName
p694
aVuseRaw
p695
aVignoreTriggers
p696
aVuseL1Trigger
p697
aVhcalScale
p698
aVdataType
p699
aVunCorrect
p700
aVgetCharge
p701
aVcollapseDepth
p702
aVl1TrigName
p703
aVoutMode
p704
aVoldID
p705
aVnewDepth
p706
aVhep17
p707
aVdebugEvents
p708
aVusePFThreshold
p709
aVmightGet
p710
asg21
I00
sg22
Nsg643
g0
(g325
g145
(lp711
tp712
Rp713
(dp714
g21
I00
sg109
I01
sg23
I01
sg333
I1
sbsg23
I01
sg644
g0
(cFWCore.ParameterSet.Types
string
p715
g2
Ntp716
Rp717
(dp718
g21
I00
sg109
I01
sg23
I00
sg110
VHLT
p719
sbsg645
g0
(g715
g2
Ntp720
Rp721
(dp722
g21
I00
sg109
I01
sg23
I00
sg110
g124
sbsg646
g0
(g715
g2
Ntp723
Rp724
(dp725
g21
I00
sg109
I01
sg23
I00
sg110
VL2Filter
p726
sbsg647
g0
(g715
g2
Ntp727
Rp728
(dp729
g21
I00
sg109
I01
sg23
I00
sg110
VFilter
p730
sbsg648
g0
(g715
g2
Ntp731
Rp732
(dp733
g21
I00
sg109
I01
sg23
I00
sg110
VhighPurity
p734
sbsg649
g0
(g105
g2
Ntp735
Rp736
(dp737
g21
I00
sg109
I01
sg23
I00
sg110
I1
sbsg650
g0
(g105
g2
Ntp738
Rp739
(dp740
g21
I00
sg109
I01
sg23
I00
sg110
F0.02
sbsg651
g0
(g105
g2
Ntp741
Rp742
(dp743
g21
I00
sg109
I01
sg23
I00
sg110
F0.02
sbsg652
g0
(g105
g2
Ntp744
Rp745
(dp746
g21
I00
sg109
I01
sg23
I00
sg110
I5
sbsg653
g0
(g105
g2
Ntp747
Rp748
(dp749
g21
I00
sg109
I01
sg23
I00
sg110
F0.1
sbsg654
g0
(g305
g2
Ntp750
Rp751
(dp752
g21
I00
sg109
I01
sg23
I00
sg110
I4
sbsg655
g0
(g305
g2
Ntp753
Rp754
(dp755
g21
I00
sg109
I01
sg23
I00
sg110
I8
sbsg656
g0
(g305
g2
Ntp756
Rp757
(dp758
g21
I00
sg109
I01
sg23
I00
sg110
I0
sbsg657
g0
(g305
g2
Ntp759
Rp760
(dp761
g21
I00
sg109
I01
sg23
I00
sg110
I0
sbsg658
g0
(g105
g2
Ntp762
Rp763
(dp764
g21
I00
sg109
I01
sg23
I00
sg110
I10
sbsg659
g0
(g105
g2
Ntp765
Rp766
(dp767
g21
I00
sg109
I01
sg23
I00
sg110
F34.98
sbsg660
g0
(g105
g2
Ntp768
Rp769
(dp770
g21
I00
sg109
I01
sg23
I00
sg110
I14
sbsg661
g0
(g105
g2
Ntp771
Rp772
(dp773
g21
I00
sg109
I01
sg23
I00
sg110
I18
sbsg662
g0
(g105
g2
Ntp774
Rp775
(dp776
g21
I00
sg109
I01
sg23
I00
sg110
I20
sbsg663
g0
(g105
g2
Ntp777
Rp778
(dp779
g21
I00
sg109
I01
sg23
I00
sg110
I22
sbsg664
g0
(g105
g2
Ntp780
Rp781
(dp782
g21
I00
sg109
I01
sg23
I00
sg110
I24
sbsg665
g0
(g105
g2
Ntp783
Rp784
(dp785
g21
I00
sg109
I01
sg23
I00
sg110
I2
sbsg666
g0
(g105
g2
Ntp786
Rp787
(dp788
g21
I00
sg109
I01
sg23
I00
sg110
I8
sbsg667
g0
(g105
g2
Ntp789
Rp790
(dp791
g21
I00
sg109
I01
sg23
I00
sg110
F0.05090504066
sbsg668
g0
(g105
g2
Ntp792
Rp793
(dp794
g21
I00
sg109
I01
sg23
I00
sg110
I2
sbsg669
g0
(g105
g2
Ntp795
Rp796
(dp797
g21
I00
sg109
I01
sg23
I00
sg110
I10
sbsg670
g0
(g105
g2
Ntp798
Rp799
(dp800
g21
I00
sg109
I01
sg23
I00
sg110
F0.18
sbsg671
g0
(g105
g2
Ntp801
Rp802
(dp803
g21
I00
sg109
I01
sg23
I00
sg110
F-206.074
sbsg672
g0
(g105
g2
Ntp804
Rp805
(dp806
g21
I00
sg109
I01
sg23
I00
sg110
F357.671
sbsg673
g0
(g105
g2
Ntp807
Rp808
(dp809
g21
I00
sg109
I01
sg23
I00
sg110
F-204.978
sbsg674
g0
(g105
g2
Ntp810
Rp811
(dp812
g21
I00
sg109
I01
sg23
I00
sg110
F39.033
sbsg675
g0
(g105
g2
Ntp813
Rp814
(dp815
g21
I00
sg109
I01
sg23
I00
sg110
F1.25
sbsg676
g0
(g105
g2
Ntp816
Rp817
(dp818
g21
I00
sg109
I01
sg23
I00
sg110
F10.0
sbsg677
g0
(g105
g2
Ntp819
Rp820
(dp821
g21
I00
sg109
I01
sg23
I00
sg110
I40
sbsg678
g0
(g105
g2
Ntp822
Rp823
(dp824
g21
I00
sg109
I01
sg23
I00
sg110
I60
sbsg679
g0
(g305
g2
Ntp825
Rp826
(dp827
g21
I00
sg109
I01
sg23
I00
sg110
I1
sbsg680
g0
(g305
g2
Ntp828
Rp829
(dp830
g21
I00
sg109
I01
sg23
I00
sg110
I1
sbsg681
g0
(g117
g2
Ntp831
Rp832
(dp833
g21
I00
sg109
I01
sg23
I00
sg121
VhltTriggerSummaryAOD
p834
sg123
g124
sg125
g719
sbsg682
g0
(g117
g2
Ntp835
Rp836
(dp837
g21
I00
sg109
I01
sg23
I00
sg121
VTriggerResults
p838
sg123
g124
sg125
g719
sbsg683
g0
(g715
g2
Ntp839
Rp840
(dp841
g21
I00
sg109
I01
sg23
I00
sg110
VgeneralTracks
p842
sbsg684
g0
(g715
g2
Ntp843
Rp844
(dp845
g21
I00
sg109
I01
sg23
I00
sg110
VofflinePrimaryVertices
p846
sbsg685
g0
(g715
g2
Ntp847
Rp848
(dp849
g21
I00
sg109
I01
sg23
I00
sg110
g286
sbsg686
g0
(g715
g2
Ntp850
Rp851
(dp852
g21
I00
sg109
I01
sg23
I00
sg110
g290
sbsg687
g0
(g715
g2
Ntp853
Rp854
(dp855
g21
I00
sg109
I01
sg23
I00
sg110
g238
sbsg688
g0
(g715
g2
Ntp856
Rp857
(dp858
g21
I00
sg109
I01
sg23
I00
sg110
VofflineBeamSpot
p859
sbsg689
g0
(g715
g2
Ntp860
Rp861
(dp862
g21
I00
sg109
I01
sg23
I00
sg110
VtowerMaker
p863
sbsg690
g0
(g715
g2
Ntp864
Rp865
(dp866
g21
I00
sg109
I01
sg23
I00
sg110
Vmuons
p867
sbsg691
g0
(g117
g2
Ntp868
Rp869
(dp870
g21
I00
sg109
I01
sg23
I00
sg121
VgtStage2Digis
p871
sg123
g124
sg125
g124
sbsg692
g0
(g117
g2
Ntp872
Rp873
(dp874
g21
I00
sg109
I01
sg23
I00
sg121
g871
sg123
g124
sg125
g124
sbsg693
g0
(g715
g2
Ntp875
Rp876
(dp877
g21
I00
sg109
I00
sg23
I00
sg110
g124
sbsg694
g0
(g715
g2
Ntp878
Rp879
(dp880
g21
I00
sg109
I00
sg23
I00
sg110
g124
sbsg695
g0
(g305
g2
Ntp881
Rp882
(dp883
g21
I00
sg109
I00
sg23
I00
sg110
I0
sbsg696
g0
(g184
g2
Ntp884
Rp885
(dp886
g21
I00
sg109
I00
sg23
I01
sg110
I01
sbsg697
g0
(g184
g2
Ntp887
Rp888
(dp889
g21
I00
sg109
I00
sg23
I00
sg110
I00
sbsg698
g0
(g105
g2
Ntp890
Rp891
(dp892
g21
I00
sg109
I00
sg23
I00
sg110
I1
sbsg699
g0
(g305
g2
Ntp893
Rp894
(dp895
g21
I00
sg109
I00
sg23
I00
sg110
I0
sbsg700
g0
(g184
g2
Ntp896
Rp897
(dp898
g21
I00
sg109
I00
sg23
I00
sg110
I00
sbsg701
g0
(g184
g2
Ntp899
Rp900
(dp901
g21
I00
sg109
I00
sg23
I00
sg110
I00
sbsg702
g0
(g184
g2
Ntp902
Rp903
(dp904
g21
I00
sg109
I00
sg23
I00
sg110
I00
sbsg703
g0
(g715
g2
Ntp905
Rp906
(dp907
g21
I00
sg109
I00
sg23
I00
sg110
VL1_SingleJet60
p908
sbsg704
g0
(g305
g2
Ntp909
Rp910
(dp911
g21
I00
sg109
I00
sg23
I00
sg110
I11
sbsg705
g0
(cFWCore.ParameterSet.Types
vint32
p912
g145
(lp913
tp914
Rp915
(dp916
g21
I00
sg109
I00
sg23
I00
sbsg706
g0
(g912
g145
(lp917
tp918
Rp919
(dp920
g21
I00
sg109
I00
sg23
I00
sbsg707
g0
(g184
g2
Ntp921
Rp922
(dp923
g21
I00
sg109
I00
sg23
I00
sg110
I00
sbsg708
g0
(g912
g145
(lp924
tp925
Rp926
(dp927
g21
I00
sg109
I01
sg23
I00
sbsg709
g0
(g184
g2
Ntp928
Rp929
(dp930
g21
I00
sg109
I01
sg23
I00
sg110
I01
sbsg710
g0
(cFWCore.ParameterSet.Types
_OptionalParameter
p931
g2
Ntp932
Rp933
(dp934
g21
I00
sg109
I00
sg23
I00
sV_ProxyParameter__type
p935
g325
sV_ProxyParameter__value
p936
Nsbsg24
V/cvmfs/cms-ib.cern.ch/sw/x86_64/week0/el8_amd64_gcc12/cms/cmssw/CMSSW_14_1_X_2024-06-16-0000/cfipython/el8_amd64_gcc12/Calibration/HcalCalibAlgos/HcalIsoTrkAnalyzer.py
p937
sg26
I4
sg27
g636
sbssV_Process__outputmodules
p938
(dp939
sV_Process__paths
p940
g0
(cFWCore.ParameterSet.DictTypes
SortedKeysDict
p941
c__builtin__
dict
p942
(dp943
Vp
p944
g0
(cFWCore.ParameterSet.SequenceTypes
Path
p945
g2
Ntp946
Rp947
(dp948
g21
I00
sV_seq
p949
g0
(cFWCore.ParameterSet.SequenceTypes
_SequenceCollection
p950
g2
Ntp951
Rp952
(dp953
V_collection
p954
(lp955
g639
asbsg23
I00
sV_tasks
p956
g0
(cFWCore.ParameterSet.OrderedSet
OrderedSet
p957
g2
Ntp958
Rp959
(dp960
Vend
p961
(lp962
Nag962
ag962
asVmap
p963
(dp964
sbsg27
g944
sbstp965
Rp966
(dp967
Vlist
p968
(lp969
g944
asbsV_Process__endpaths
p970
g0
(g941
g942
(dp971
tp972
Rp973
(dp974
g968
(lp975
sbsV_Process__finalpaths
p976
g0
(g941
g942
(dp977
tp978
Rp979
(dp980
g968
(lp981
sbsV_Process__sequences
p982
(dp983
sV_Process__tasks
p984
(dp985
sV_Process__conditionaltasks
p986
(dp987
sV_Process__services
p988
(dp989
VMessageLogger
p990
g0
(cFWCore.ParameterSet.Modules
Service
p991
g2
Ntp992
Rp993
(dp994
g17
g990
sg19
(lp995
VsuppressWarning
p996
aVsuppressFwkInfo
p997
aVsuppressInfo
p998
aVsuppressDebug
p999
aVdebugModules
p1000
aVcout
p1001
aVdefault
p1002
aVcerr
p1003
aVfiles
p1004
aVHcalIsoTrackX
p1005
aVHcalIsoTrack
p1006
asg21
I00
sg22
g0
(g931
g2
Ntp1007
Rp1008
(dp1009
g21
I00
sg109
I00
sg23
I00
sg935
g0
(cFWCore.ParameterSet.Types
_PSetTemplate
p1010
g2
Ntp1011
Rp1012
(dp1013
V_pset
p1014
g0
(cFWCore.ParameterSet.Types
PSet
p1015
g2
Ntp1016
Rp1017
(dp1018
g21
I00
sg109
I01
sg23
I00
sg19
(lp1019
VreportEvery
p1020
aVlimit
p1021
aVtimespan
p1022
asg22
Nsg1020
g0
(g305
g2
Ntp1023
Rp1024
(dp1025
g21
I00
sg109
I00
sg23
I00
sg110
I1
sbsg1021
g0
(g931
g2
Ntp1026
Rp1027
(dp1028
g21
I00
sg109
I00
sg23
I00
sg935
g305
sg936
Nsbsg1022
g0
(g931
g2
Ntp1029
Rp1030
(dp1031
g21
I00
sg109
I00
sg23
I00
sg935
g305
sg936
Nsbsbsbsg936
Nsbsg996
g0
(g325
g145
(lp1032
tp1033
Rp1034
(dp1035
g21
I00
sg109
I00
sg23
I00
sg333
I1
sbsg23
I01
sg997
g0
(g325
g145
(lp1036
tp1037
Rp1038
(dp1039
g21
I00
sg109
I00
sg23
I00
sg333
I1
sbsg998
g0
(g325
g145
(lp1040
tp1041
Rp1042
(dp1043
g21
I00
sg109
I00
sg23
I00
sg333
I1
sbsg999
g0
(g325
g145
(lp1044
tp1045
Rp1046
(dp1047
g21
I00
sg109
I00
sg23
I00
sg333
I1
sbsg1000
g0
(g325
g145
(lp1048
tp1049
Rp1050
(dp1051
g21
I00
sg109
I00
sg23
I00
sg333
I1
sbsg1001
g0
(g1015
g2
Ntp1052
Rp1053
(dp1054
g21
I00
sg109
I00
sg23
I00
sg19
(lp1055
VnoLineBreaks
p1056
aVnoTimeStamps
p1057
aVlineLength
p1058
aVthreshold
p1059
aVstatisticsThreshold
p1060
aVenableStatistics
p1061
aVresetStatistics
p1062
aVenable
p1063
asg22
g1008
sg1056
g0
(g931
g2
Ntp1064
Rp1065
(dp1066
g21
I00
sg109
I00
sg23
I00
sg935
g184
sg936
Nsbsg1057
g0
(g931
g2
Ntp1067
Rp1068
(dp1069
g21
I00
sg109
I00
sg23
I00
sg935
g184
sg936
Nsbsg1058
g0
(g931
g2
Ntp1070
Rp1071
(dp1072
g21
I00
sg109
I00
sg23
I00
sg935
g305
sg936
Nsbsg1059
g0
(g931
g2
Ntp1073
Rp1074
(dp1075
g21
I00
sg109
I00
sg23
I00
sg935
g715
sg936
Nsbsg1060
g0
(g931
g2
Ntp1076
Rp1077
(dp1078
g21
I00
sg109
I00
sg23
I00
sg935
g715
sg936
Nsbsg1061
g0
(g184
g2
Ntp1079
Rp1080
(dp1081
g21
I00
sg109
I00
sg23
I00
sg110
I00
sbsg1062
g0
(g184
g2
Ntp1082
Rp1083
(dp1084
g21
I00
sg109
I00
sg23
I00
sg110
I00
sbsg1063
g0
(g184
g2
Ntp1085
Rp1086
(dp1087
g21
I00
sg109
I00
sg23
I00
sg110
I00
sbsbsg1002
g0
(g1015
g2
Ntp1088
Rp1089
(dp1090
g21
I00
sg109
I00
sg23
I00
sg19
(lp1091
g1020
ag1021
ag1022
ag1056
ag1057
ag1058
ag1059
ag1060
asg22
g1008
sg1020
g0
(g305
g2
Ntp1092
Rp1093
(dp1094
g21
I00
sg109
I00
sg23
I00
sg110
I1
sbsg1021
g0
(g931
g2
Ntp1095
Rp1096
(dp1097
g21
I00
sg109
I00
sg23
I00
sg935
g305
sg936
Nsbsg1022
g0
(g931
g2
Ntp1098
Rp1099
(dp1100
g21
I00
sg109
I00
sg23
I00
sg935
g305
sg936
Nsbsg1056
g0
(g184
g2
Ntp1101
Rp1102
(dp1103
g21
I00
sg109
I00
sg23
I00
sg110
I00
sbsg1057
g0
(g184
g2
Ntp1104
Rp1105
(dp1106
g21
I00
sg109
I00
sg23
I00
sg110
I00
sbsg1058
g0
(g305
g2
Ntp1107
Rp1108
(dp1109
g21
I00
sg109
I00
sg23
I00
sg110
I80
sbsg1059
g0
(g715
g2
Ntp1110
Rp1111
(dp1112
g21
I00
sg109
I00
sg23
I00
sg110
VINFO
p1113
sbsg1060
g0
(g715
g2
Ntp1114
Rp1115
(dp1116
g21
I00
sg109
I00
sg23
I00
sg110
g1113
sbsbsg1003
g0
(g1015
g2
Ntp1117
Rp1118
(dp1119
g21
I00
sg109
I00
sg23
I00
sg19
(lp1120
g1056
ag1057
ag1058
ag1059
ag1060
ag1063
ag1061
ag1062
ag1113
aVFwkReport
p1121
ag1002
aVRoot_NoDictionary
p1122
aVFwkSummary
p1123
asg22
g1008
sg1056
g0
(g931
g2
Ntp1124
Rp1125
(dp1126
g21
I00
sg109
I00
sg23
I00
sg935
g184
sg936
Nsbsg1057
g0
(g184
g2
Ntp1127
Rp1128
(dp1129
g21
I00
sg109
I00
sg23
I00
sg110
I00
sbsg1058
g0
(g931
g2
Ntp1130
Rp1131
(dp1132
g21
I00
sg109
I00
sg23
I00
sg935
g305
sg936
Nsbsg1059
g0
(g715
g2
Ntp1133
Rp1134
(dp1135
g21
I00
sg109
I00
sg23
I00
sg110
g1113
sbsg1060
g0
(g715
g2
Ntp1136
Rp1137
(dp1138
g21
I00
sg109
I00
sg23
I00
sg110
VWARNING
p1139
sbsg1063
g0
(g184
g2
Ntp1140
Rp1141
(dp1142
g21
I00
sg109
I00
sg23
I00
sg110
I01
sbsg1061
g0
(g184
g2
Ntp1143
Rp1144
(dp1145
g21
I00
sg109
I00
sg23
I00
sg110
I00
sbsg1062
g0
(g184
g2
Ntp1146
Rp1147
(dp1148
g21
I00
sg109
I00
sg23
I00
sg110
I00
sbsg1113
g0
(g1015
g2
Ntp1149
Rp1150
(dp1151
g21
I00
sg109
I00
sg23
I00
sg19
(lp1152
g1021
asg22
Nsg1021
g0
(g305
g2
Ntp1153
Rp1154
(dp1155
g21
I00
sg109
I00
sg23
I00
sg110
I0
sbsbsg1121
g0
(g1015
g2
Ntp1156
Rp1157
(dp1158
g21
I00
sg109
I00
sg23
I01
sg19
(lp1159
g1020
ag1021
asg22
Nsg1020
g0
(g305
g2
Ntp1160
Rp1161
(dp1162
g21
I00
sg109
I00
sg23
I00
sg110
I1000
sbsg1021
g0
(g305
g2
Ntp1163
Rp1164
(dp1165
g21
I00
sg109
I00
sg23
I00
sg110
I10000000
sbsbsg1002
g0
(g1015
g2
Ntp1166
Rp1167
(dp1168
g21
I00
sg109
I00
sg23
I00
sg19
(lp1169
g1021
asg22
Nsg1021
g0
(g305
g2
Ntp1170
Rp1171
(dp1172
g21
I00
sg109
I00
sg23
I00
sg110
I10000000
sbsbsg1122
g0
(g1015
g2
Ntp1173
Rp1174
(dp1175
g21
I00
sg109
I00
sg23
I00
sg19
(lp1176
g1021
asg22
Nsg1021
g0
(g305
g2
Ntp1177
Rp1178
(dp1179
g21
I00
sg109
I00
sg23
I00
sg110
I0
sbsbsg1123
g0
(g1015
g2
Ntp1180
Rp1181
(dp1182
g21
I00
sg109
I00
sg23
I00
sg19
(lp1183
g1020
ag1021
asg22
Nsg1020
g0
(g305
g2
Ntp1184
Rp1185
(dp1186
g21
I00
sg109
I00
sg23
I00
sg110
I1
sbsg1021
g0
(g305
g2
Ntp1187
Rp1188
(dp1189
g21
I00
sg109
I00
sg23
I00
sg110
I10000000
sbsbsbsg1004
g0
(g1015
g2
Ntp1190
Rp1191
(dp1192
g21
I00
sg109
I00
sg23
I00
sg19
(lp1193
sg22
g0
(g931
g2
Ntp1194
Rp1195
(dp1196
g21
I00
sg109
I00
sg23
I00
sg935
g0
(g1010
g2
Ntp1197
Rp1198
(dp1199
g1014
g0
(g1015
g2
Ntp1200
Rp1201
(dp1202
g21
I00
sg109
I01
sg23
I00
sg19
(lp1203
g1056
ag1057
ag1058
ag1059
ag1060
ag1061
ag1062
aVfilename
p1204
aVextension
p1205
aVoutput
p1206
asg22
g1008
sg1056
g0
(g931
g2
Ntp1207
Rp1208
(dp1209
g21
I00
sg109
I00
sg23
I00
sg935
g184
sg936
Nsbsg1057
g0
(g931
g2
Ntp1210
Rp1211
(dp1212
g21
I00
sg109
I00
sg23
I00
sg935
g184
sg936
Nsbsg1058
g0
(g931
g2
Ntp1213
Rp1214
(dp1215
g21
I00
sg109
I00
sg23
I00
sg935
g305
sg936
Nsbsg1059
g0
(g931
g2
Ntp1216
Rp1217
(dp1218
g21
I00
sg109
I00
sg23
I00
sg935
g715
sg936
Nsbsg1060
g0
(g931
g2
Ntp1219
Rp1220
(dp1221
g21
I00
sg109
I00
sg23
I00
sg935
g715
sg936
Nsbsg1061
g0
(g184
g2
Ntp1222
Rp1223
(dp1224
g21
I00
sg109
I00
sg23
I00
sg110
I00
sbsg1062
g0
(g184
g2
Ntp1225
Rp1226
(dp1227
g21
I00
sg109
I00
sg23
I00
sg110
I00
sbsg1204
g0
(g931
g2
Ntp1228
Rp1229
(dp1230
g21
I00
sg109
I00
sg23
I00
sg935
g715
sg936
Nsbsg1205
g0
(g931
g2
Ntp1231
Rp1232
(dp1233
g21
I00
sg109
I00
sg23
I00
sg935
g715
sg936
Nsbsg1206
g0
(g931
g2
Ntp1234
Rp1235
(dp1236
g21
I00
sg109
I00
sg23
I00
sg935
g715
sg936
Nsbsbsbsg936
Nsbsbsg24
g629
sg26
I13
sV_inProcess
p1237
I00
sg1005
g0
(g1015
g2
Ntp1238
Rp1239
(dp1240
g21
I00
sg109
I00
sg23
I00
sg19
(lp1241
g1020
ag1021
ag1022
asg22
Nsg1020
g0
(g305
g2
Ntp1242
Rp1243
(dp1244
g21
I00
sg109
I00
sg23
I00
sg110
I1
sbsg1021
g0
(g931
g2
Ntp1245
Rp1246
(dp1247
g21
I00
sg109
I00
sg23
I00
sg935
g305
sg936
Nsbsg1022
g0
(g931
g2
Ntp1248
Rp1249
(dp1250
g21
I00
sg109
I00
sg23
I00
sg935
g305
sg936
Nsbsbsg1006
g0
(g1015
g2
Ntp1251
Rp1252
(dp1253
g21
I00
sg109
I00
sg23
I00
sg19
(lp1254
g1020
ag1021
ag1022
asg22
Nsg1020
g0
(g305
g2
Ntp1255
Rp1256
(dp1257
g21
I00
sg109
I00
sg23
I00
sg110
I1
sbsg1021
g0
(g931
g2
Ntp1258
Rp1259
(dp1260
g21
I00
sg109
I00
sg23
I00
sg935
g305
sg936
Nsbsg1022
g0
(g931
g2
Ntp1261
Rp1262
(dp1263
g21
I00
sg109
I00
sg23
I00
sg935
g305
sg936
NsbsbsbsVDQMStore
p1264
g0
(g991
g2
Ntp1265
Rp1266
(dp1267
g17
g1264
sg19
(lp1268
Vverbose
p1269
aVsaveByLumi
p1270
aVMEsToSave
p1271
aVtrackME
p1272
aVassertLegacySafe
p1273
aVenableMultiThread
p1274
aVonlineMode
p1275
asg21
I00
sg22
Nsg1269
g0
(g305
g2
Ntp1276
Rp1277
(dp1278
g21
I00
sg109
I00
sg23
I00
sg110
I0
sbsg23
I00
sg1270
g0
(g184
g2
Ntp1279
Rp1280
(dp1281
g21
I00
sg109
I00
sg23
I00
sg110
I00
sbsg1271
g0
(g325
g145
(lp1282
VHcal/DigiTask/Occupancy/depth/depth1
p1283
aVHcal/DigiTask/Occupancy/depth/depth2
p1284
aVHcal/DigiTask/Occupancy/depth/depth3
p1285
aVHcal/DigiTask/Occupancy/depth/depth4
p1286
aVHcal/DigiTask/Occupancy/depth/depth5
p1287
aVHcal/DigiTask/Occupancy/depth/depth6
p1288
aVHcal/DigiTask/Occupancy/depth/depth7
p1289
aVHcal/DigiTask/Occupancy/depth/depthHO
p1290
aVHcal/DigiTask/OccupancyCut/depth/depth1
p1291
aVHcal/DigiTask/OccupancyCut/depth/depth2
p1292
aVHcal/DigiTask/OccupancyCut/depth/depth3
p1293
aVHcal/DigiTask/OccupancyCut/depth/depth4
p1294
aVHcal/DigiTask/OccupancyCut/depth/depth5
p1295
aVHcal/DigiTask/OccupancyCut/depth/depth6
p1296
aVHcal/DigiTask/OccupancyCut/depth/depth7
p1297
aVHcal/DigiTask/OccupancyCut/depth/depthHO
p1298
aVEcalBarrel/EBOccupancyTask/EBOT digi occupancy
p1299
aVEcalEndcap/EEOccupancyTask/EEOT digi occupancy EE -
p1300
aVEcalEndcap/EEOccupancyTask/EEOT digi occupancy EE +
p1301
aVEcalBarrel/EBOccupancyTask/EBOT DCC entries
p1302
aVEcalEndcap/EEOccupancyTask/EEOT DCC entries
p1303
aVEcal/EventInfo/processedEvents
p1304
aVPixelPhase1/Tracks/charge_PXBarrel
p1305
aVPixelPhase1/Tracks/charge_PXForward
p1306
aVPixelPhase1/Tracks/PXBarrel/charge_PXLayer_1
p1307
aVPixelPhase1/Tracks/PXBarrel/charge_PXLayer_2
p1308
aVPixelPhase1/Tracks/PXBarrel/charge_PXLayer_3
p1309
aVPixelPhase1/Tracks/PXBarrel/charge_PXLayer_4
p1310
aVPixelPhase1/Tracks/PXForward/charge_PXDisk_+1
p1311
aVPixelPhase1/Tracks/PXForward/charge_PXDisk_+2
p1312
aVPixelPhase1/Tracks/PXForward/charge_PXDisk_+3
p1313
aVPixelPhase1/Tracks/PXForward/charge_PXDisk_-1
p1314
aVPixelPhase1/Tracks/PXForward/charge_PXDisk_-2
p1315
aVPixelPhase1/Tracks/PXForward/charge_PXDisk_-3
p1316
aVPixelPhase1/Tracks/PXBarrel/size_PXLayer_1
p1317
aVPixelPhase1/Tracks/PXBarrel/size_PXLayer_2
p1318
aVPixelPhase1/Tracks/PXBarrel/size_PXLayer_3
p1319
aVPixelPhase1/Tracks/PXBarrel/size_PXLayer_4
p1320
aVPixelPhase1/Tracks/PXForward/size_PXDisk_+1
p1321
aVPixelPhase1/Tracks/PXForward/size_PXDisk_+2
p1322
aVPixelPhase1/Tracks/PXForward/size_PXDisk_+3
p1323
aVPixelPhase1/Tracks/PXForward/size_PXDisk_-1
p1324
aVPixelPhase1/Tracks/PXForward/size_PXDisk_-2
p1325
aVPixelPhase1/Tracks/PXForward/size_PXDisk_-3
p1326
aVCSC/CSCOfflineMonitor/recHits/hRHGlobalm1
p1327
aVCSC/CSCOfflineMonitor/recHits/hRHGlobalm2
p1328
aVCSC/CSCOfflineMonitor/recHits/hRHGlobalm3
p1329
aVCSC/CSCOfflineMonitor/recHits/hRHGlobalm4
p1330
aVCSC/CSCOfflineMonitor/recHits/hRHGlobalp1
p1331
aVCSC/CSCOfflineMonitor/recHits/hRHGlobalp2
p1332
aVCSC/CSCOfflineMonitor/recHits/hRHGlobalp3
p1333
aVCSC/CSCOfflineMonitor/recHits/hRHGlobalp4
p1334
aVHLT/Vertexing/hltPixelVertices/hltPixelVertices/goodvtxNbr
p1335
aVHLT/Tracking/ValidationWRTOffline/hltMergedWrtHighPurityPV/mon_eta
p1336
aVHLT/Tracking/ValidationWRTOffline/hltMergedWrtHighPurityPV/mon_hits
p1337
aVHLT/Tracking/ValidationWRTOffline/hltMergedWrtHighPurityPV/mon_phi
p1338
aVHLT/Tracking/ValidationWRTOffline/hltMergedWrtHighPurityPV/mon_pt
p1339
aVHLT/Tracking/ValidationWRTOffline/hltMergedWrtHighPurityPV/mon_unMatched_eta
p1340
aVHLT/Tracking/ValidationWRTOffline/hltMergedWrtHighPurityPV/mon_unMatched_hits
p1341
aVHLT/Tracking/ValidationWRTOffline/hltMergedWrtHighPurityPV/mon_unMatched_phi
p1342
aVHLT/Tracking/ValidationWRTOffline/hltMergedWrtHighPurityPV/mon_unMatched_pt
p1343
aVHLT/Tracking/ValidationWRTOffline/hltMergedWrtHighPurityPV/ref_eta
p1344
aVHLT/Tracking/ValidationWRTOffline/hltMergedWrtHighPurityPV/ref_hits
p1345
aVHLT/Tracking/ValidationWRTOffline/hltMergedWrtHighPurityPV/ref_matched_eta
p1346
aVHLT/Tracking/ValidationWRTOffline/hltMergedWrtHighPurityPV/ref_matched_hits
p1347
aVHLT/Tracking/ValidationWRTOffline/hltMergedWrtHighPurityPV/ref_matched_phi
p1348
aVHLT/Tracking/ValidationWRTOffline/hltMergedWrtHighPurityPV/ref_matched_pt
p1349
aVHLT/Tracking/ValidationWRTOffline/hltMergedWrtHighPurityPV/ref_phi
p1350
aVHLT/Tracking/ValidationWRTOffline/hltMergedWrtHighPurityPV/ref_pt
p1351
aVHLT/Tracking/pixelTracks/GeneralProperties/Chi2Prob_GenTk
p1352
aVHLT/Tracking/pixelTracks/GeneralProperties/Chi2oNDFVsEta_ImpactPoint_GenTk
p1353
aVHLT/Tracking/pixelTracks/GeneralProperties/DeltaZToPVZoom_GenTk
p1354
aVHLT/Tracking/pixelTracks/GeneralProperties/DistanceOfClosestApproachToPVVsPhi_GenTk
p1355
aVHLT/Tracking/pixelTracks/GeneralProperties/DistanceOfClosestApproachToPVZoom_GenTk
p1356
aVHLT/Tracking/pixelTracks/GeneralProperties/NumberOfTracks_GenTk
p1357
aVHLT/Tracking/tracks/GeneralProperties/Chi2Prob_GenTk
p1358
aVHLT/Tracking/tracks/GeneralProperties/Chi2oNDFVsEta_ImpactPoint_GenTk
p1359
aVHLT/Tracking/tracks/GeneralProperties/DeltaZToPVZoom_GenTk
p1360
aVHLT/Tracking/tracks/GeneralProperties/DistanceOfClosestApproachToPVVsPhi_GenTk
p1361
aVHLT/Tracking/tracks/GeneralProperties/DistanceOfClosestApproachToPVZoom_GenTk
p1362
aVHLT/Tracking/tracks/GeneralProperties/NumberOfTracks_GenTk
p1363
aVHLT/Tracking/tracks/LUMIanalysis/NumberEventsVsLUMI
p1364
aVHLT/Tracking/tracks/PUmonitoring/NumberEventsVsGoodPVtx
p1365
aVPixelPhase1/Tracks/num_clusters_ontrack_PXBarrel
p1366
aVPixelPhase1/Tracks/num_clusters_ontrack_PXForward
p1367
aVPixelPhase1/Tracks/clusterposition_zphi_ontrack
p1368
aVPixelPhase1/Tracks/PXBarrel/clusterposition_zphi_ontrack_PXLayer_1
p1369
aVPixelPhase1/Tracks/PXBarrel/clusterposition_zphi_ontrack_PXLayer_2
p1370
aVPixelPhase1/Tracks/PXBarrel/clusterposition_zphi_ontrack_PXLayer_3
p1371
aVPixelPhase1/Tracks/PXBarrel/clusterposition_zphi_ontrack_PXLayer_4
p1372
aVPixelPhase1/Tracks/PXForward/clusterposition_xy_ontrack_PXDisk_+1
p1373
aVPixelPhase1/Tracks/PXForward/clusterposition_xy_ontrack_PXDisk_+2
p1374
aVPixelPhase1/Tracks/PXForward/clusterposition_xy_ontrack_PXDisk_+3
p1375
aVPixelPhase1/Tracks/PXForward/clusterposition_xy_ontrack_PXDisk_-1
p1376
aVPixelPhase1/Tracks/PXForward/clusterposition_xy_ontrack_PXDisk_-2
p1377
aVPixelPhase1/Tracks/PXForward/clusterposition_xy_ontrack_PXDisk_-3
p1378
aVPixelPhase1/Phase1_MechanicalView/PXBarrel/digi_occupancy_per_SignedModuleCoord_per_SignedLadderCoord_PXLayer_1
p1379
aVPixelPhase1/Phase1_MechanicalView/PXBarrel/digi_occupancy_per_SignedModuleCoord_per_SignedLadderCoord_PXLayer_2
p1380
aVPixelPhase1/Phase1_MechanicalView/PXBarrel/digi_occupancy_per_SignedModuleCoord_per_SignedLadderCoord_PXLayer_3
p1381
aVPixelPhase1/Phase1_MechanicalView/PXBarrel/digi_occupancy_per_SignedModuleCoord_per_SignedLadderCoord_PXLayer_4
p1382
aVPixelPhase1/Phase1_MechanicalView/PXForward/digi_occupancy_per_SignedDiskCoord_per_SignedBladePanelCoord_PXRing_1
p1383
aVPixelPhase1/Phase1_MechanicalView/PXForward/digi_occupancy_per_SignedDiskCoord_per_SignedBladePanelCoord_PXRing_2
p1384
aVPixelPhase1/Phase1_MechanicalView/PXBarrel/clusters_per_SignedModuleCoord_per_SignedLadderCoord_PXLayer_1
p1385
aVPixelPhase1/Phase1_MechanicalView/PXBarrel/clusters_per_SignedModuleCoord_per_SignedLadderCoord_PXLayer_2
p1386
aVPixelPhase1/Phase1_MechanicalView/PXBarrel/clusters_per_SignedModuleCoord_per_SignedLadderCoord_PXLayer_3
p1387
aVPixelPhase1/Phase1_MechanicalView/PXBarrel/clusters_per_SignedModuleCoord_per_SignedLadderCoord_PXLayer_4
p1388
aVPixelPhase1/Phase1_MechanicalView/PXForward/clusters_per_SignedDiskCoord_per_SignedBladePanelCoord_PXRing_1
p1389
aVPixelPhase1/Phase1_MechanicalView/PXForward/clusters_per_SignedDiskCoord_per_SignedBladePanelCoord_PXRing_2
p1390
aVSiStrip/MechanicalView/TEC/PLUS/wheel_1/NormalizedHitResiduals_TEC__wheel__1
p1391
aVSiStrip/MechanicalView/TEC/PLUS/wheel_2/NormalizedHitResiduals_TEC__wheel__2
p1392
aVSiStrip/MechanicalView/TEC/PLUS/wheel_3/NormalizedHitResiduals_TEC__wheel__3
p1393
aVSiStrip/MechanicalView/TEC/PLUS/wheel_4/NormalizedHitResiduals_TEC__wheel__4
p1394
aVSiStrip/MechanicalView/TEC/PLUS/wheel_5/NormalizedHitResiduals_TEC__wheel__5
p1395
aVSiStrip/MechanicalView/TEC/PLUS/wheel_6/NormalizedHitResiduals_TEC__wheel__6
p1396
aVSiStrip/MechanicalView/TEC/PLUS/wheel_7/NormalizedHitResiduals_TEC__wheel__7
p1397
aVSiStrip/MechanicalView/TEC/PLUS/wheel_8/NormalizedHitResiduals_TEC__wheel__8
p1398
aVSiStrip/MechanicalView/TEC/PLUS/wheel_9/NormalizedHitResiduals_TEC__wheel__9
p1399
aVSiStrip/MechanicalView/TEC/MINUS/wheel_1/NormalizedHitResiduals_TEC__wheel__1
p1400
aVSiStrip/MechanicalView/TEC/MINUS/wheel_2/NormalizedHitResiduals_TEC__wheel__2
p1401
aVSiStrip/MechanicalView/TEC/MINUS/wheel_3/NormalizedHitResiduals_TEC__wheel__3
p1402
aVSiStrip/MechanicalView/TEC/MINUS/wheel_4/NormalizedHitResiduals_TEC__wheel__4
p1403
aVSiStrip/MechanicalView/TEC/MINUS/wheel_5/NormalizedHitResiduals_TEC__wheel__5
p1404
aVSiStrip/MechanicalView/TEC/MINUS/wheel_6/NormalizedHitResiduals_TEC__wheel__6
p1405
aVSiStrip/MechanicalView/TEC/MINUS/wheel_7/NormalizedHitResiduals_TEC__wheel__7
p1406
aVSiStrip/MechanicalView/TEC/MINUS/wheel_8/NormalizedHitResiduals_TEC__wheel__8
p1407
aVSiStrip/MechanicalView/TEC/MINUS/wheel_9/NormalizedHitResiduals_TEC__wheel__9
p1408
aVSiStrip/MechanicalView/TEC/PLUS/wheel_1/Summary_ClusterStoNCorr__OnTrack__TEC__PLUS__wheel__1
p1409
aVSiStrip/MechanicalView/TEC/PLUS/wheel_2/Summary_ClusterStoNCorr__OnTrack__TEC__PLUS__wheel__2
p1410
aVSiStrip/MechanicalView/TEC/PLUS/wheel_3/Summary_ClusterStoNCorr__OnTrack__TEC__PLUS__wheel__3
p1411
aVSiStrip/MechanicalView/TEC/PLUS/wheel_4/Summary_ClusterStoNCorr__OnTrack__TEC__PLUS__wheel__4
p1412
aVSiStrip/MechanicalView/TEC/PLUS/wheel_5/Summary_ClusterStoNCorr__OnTrack__TEC__PLUS__wheel__5
p1413
aVSiStrip/MechanicalView/TEC/PLUS/wheel_6/Summary_ClusterStoNCorr__OnTrack__TEC__PLUS__wheel__6
p1414
aVSiStrip/MechanicalView/TEC/PLUS/wheel_7/Summary_ClusterStoNCorr__OnTrack__TEC__PLUS__wheel__7
p1415
aVSiStrip/MechanicalView/TEC/PLUS/wheel_8/Summary_ClusterStoNCorr__OnTrack__TEC__PLUS__wheel__8
p1416
aVSiStrip/MechanicalView/TEC/PLUS/wheel_9/Summary_ClusterStoNCorr__OnTrack__TEC__PLUS__wheel__9
p1417
aVSiStrip/MechanicalView/TEC/MINUS/wheel_1/Summary_ClusterStoNCorr__OnTrack__TEC__MINUS__wheel__1
p1418
aVSiStrip/MechanicalView/TEC/MINUS/wheel_2/Summary_ClusterStoNCorr__OnTrack__TEC__MINUS__wheel__2
p1419
aVSiStrip/MechanicalView/TEC/MINUS/wheel_3/Summary_ClusterStoNCorr__OnTrack__TEC__MINUS__wheel__3
p1420
aVSiStrip/MechanicalView/TEC/MINUS/wheel_4/Summary_ClusterStoNCorr__OnTrack__TEC__MINUS__wheel__4
p1421
aVSiStrip/MechanicalView/TEC/MINUS/wheel_5/Summary_ClusterStoNCorr__OnTrack__TEC__MINUS__wheel__5
p1422
aVSiStrip/MechanicalView/TEC/MINUS/wheel_6/Summary_ClusterStoNCorr__OnTrack__TEC__MINUS__wheel__6
p1423
aVSiStrip/MechanicalView/TEC/MINUS/wheel_7/Summary_ClusterStoNCorr__OnTrack__TEC__MINUS__wheel__7
p1424
aVSiStrip/MechanicalView/TEC/MINUS/wheel_8/Summary_ClusterStoNCorr__OnTrack__TEC__MINUS__wheel__8
p1425
aVSiStrip/MechanicalView/TEC/MINUS/wheel_9/Summary_ClusterStoNCorr__OnTrack__TEC__MINUS__wheel__9
p1426
aVSiStrip/MechanicalView/TIB/layer_1/NormalizedHitResiduals_TIB__Layer__1
p1427
aVSiStrip/MechanicalView/TIB/layer_2/NormalizedHitResiduals_TIB__Layer__2
p1428
aVSiStrip/MechanicalView/TIB/layer_3/NormalizedHitResiduals_TIB__Layer__3
p1429
aVSiStrip/MechanicalView/TIB/layer_4/NormalizedHitResiduals_TIB__Layer__4
p1430
aVSiStrip/MechanicalView/TIB/layer_1/Summary_ClusterStoNCorr__OnTrack__TIB__layer__1
p1431
aVSiStrip/MechanicalView/TIB/layer_2/Summary_ClusterStoNCorr__OnTrack__TIB__layer__2
p1432
aVSiStrip/MechanicalView/TIB/layer_3/Summary_ClusterStoNCorr__OnTrack__TIB__layer__3
p1433
aVSiStrip/MechanicalView/TIB/layer_4/Summary_ClusterStoNCorr__OnTrack__TIB__layer__4
p1434
aVSiStrip/MechanicalView/TID/PLUS/wheel_1/NormalizedHitResiduals_TID__wheel__1
p1435
aVSiStrip/MechanicalView/TID/PLUS/wheel_2/NormalizedHitResiduals_TID__wheel__2
p1436
aVSiStrip/MechanicalView/TID/PLUS/wheel_3/NormalizedHitResiduals_TID__wheel__3
p1437
aVSiStrip/MechanicalView/TID/MINUS/wheel_1/NormalizedHitResiduals_TID__wheel__1
p1438
aVSiStrip/MechanicalView/TID/MINUS/wheel_2/NormalizedHitResiduals_TID__wheel__2
p1439
aVSiStrip/MechanicalView/TID/MINUS/wheel_3/NormalizedHitResiduals_TID__wheel__3
p1440
aVSiStrip/MechanicalView/TID/PLUS/wheel_1/Summary_ClusterStoNCorr__OnTrack__TID__PLUS__wheel__1
p1441
aVSiStrip/MechanicalView/TID/PLUS/wheel_2/Summary_ClusterStoNCorr__OnTrack__TID__PLUS__wheel__2
p1442
aVSiStrip/MechanicalView/TID/PLUS/wheel_3/Summary_ClusterStoNCorr__OnTrack__TID__PLUS__wheel__3
p1443
aVSiStrip/MechanicalView/TID/MINUS/wheel_1/Summary_ClusterStoNCorr__OnTrack__TID__MINUS__wheel__1
p1444
aVSiStrip/MechanicalView/TID/MINUS/wheel_2/Summary_ClusterStoNCorr__OnTrack__TID__MINUS__wheel__2
p1445
aVSiStrip/MechanicalView/TID/MINUS/wheel_3/Summary_ClusterStoNCorr__OnTrack__TID__MINUS__wheel__3
p1446
aVSiStrip/MechanicalView/TOB/layer_1/NormalizedHitResiduals_TOB__Layer__1
p1447
aVSiStrip/MechanicalView/TOB/layer_2/NormalizedHitResiduals_TOB__Layer__2
p1448
aVSiStrip/MechanicalView/TOB/layer_3/NormalizedHitResiduals_TOB__Layer__3
p1449
aVSiStrip/MechanicalView/TOB/layer_4/NormalizedHitResiduals_TOB__Layer__4
p1450
aVSiStrip/MechanicalView/TOB/layer_5/NormalizedHitResiduals_TOB__Layer__5
p1451
aVSiStrip/MechanicalView/TOB/layer_6/NormalizedHitResiduals_TOB__Layer__6
p1452
aVSiStrip/MechanicalView/TOB/layer_1/Summary_ClusterStoNCorr__OnTrack__TOB__layer__1
p1453
aVSiStrip/MechanicalView/TOB/layer_2/Summary_ClusterStoNCorr__OnTrack__TOB__layer__2
p1454
aVSiStrip/MechanicalView/TOB/layer_3/Summary_ClusterStoNCorr__OnTrack__TOB__layer__3
p1455
aVSiStrip/MechanicalView/TOB/layer_4/Summary_ClusterStoNCorr__OnTrack__TOB__layer__4
p1456
aVSiStrip/MechanicalView/TOB/layer_5/Summary_ClusterStoNCorr__OnTrack__TOB__layer__5
p1457
aVSiStrip/MechanicalView/TOB/layer_6/Summary_ClusterStoNCorr__OnTrack__TOB__layer__6
p1458
aVSiStrip/MechanicalView/MainDiagonal Position
p1459
aVSiStrip/MechanicalView/NumberOfClustersInPixel
p1460
aVSiStrip/MechanicalView/NumberOfClustersInStrip
p1461
aVTracking/TrackParameters/generalTracks/LSanalysis/Chi2oNDF_lumiFlag_GenTk
p1462
aVTracking/TrackParameters/generalTracks/LSanalysis/NumberOfRecHitsPerTrack_lumiFlag_GenTk
p1463
aVTracking/TrackParameters/generalTracks/LSanalysis/NumberOfTracks_lumiFlag_GenTk
p1464
aVTracking/TrackParameters/highPurityTracks/pt_1/GeneralProperties/SIPDxyToPV_GenTk
p1465
aVTracking/TrackParameters/highPurityTracks/pt_1/GeneralProperties/SIPDzToPV_GenTk
p1466
aVTracking/TrackParameters/highPurityTracks/pt_1/GeneralProperties/SIP3DToPV_GenTk
p1467
aVTracking/TrackParameters/generalTracks/HitProperties/NumberOfMissingOuterRecHitsPerTrack_GenTk
p1468
aVTracking/TrackParameters/generalTracks/HitProperties/NumberMORecHitsPerTrackVsPt_GenTk
p1469
aVOfflinePV/offlinePrimaryVertices/tagVtxProb
p1470
aVOfflinePV/offlinePrimaryVertices/tagType
p1471
aVOfflinePV/Resolution/PV/pull_x
p1472
aVOfflinePV/Resolution/PV/pull_y
p1473
aVOfflinePV/Resolution/PV/pull_z
p1474
aVJetMET/Jet/Cleanedak4PFJetsCHS/CHFrac_highPt_Barrel
p1475
aVJetMET/Jet/Cleanedak4PFJetsCHS/CHFrac_highPt_EndCap
p1476
aVJetMET/Jet/Cleanedak4PFJetsCHS/CHFrac_mediumPt_Barrel
p1477
aVJetMET/Jet/Cleanedak4PFJetsCHS/CHFrac_mediumPt_EndCap
p1478
aVJetMET/Jet/Cleanedak4PFJetsCHS/CHFrac_lowPt_Barrel
p1479
aVJetMET/Jet/Cleanedak4PFJetsCHS/CHFrac_lowPt_EndCap
p1480
aVJetMET/Jet/Cleanedak4PFJetsCHS/ChMultiplicity_highPt_Barrel
p1481
aVJetMET/Jet/Cleanedak4PFJetsCHS/ChMultiplicity_highPt_EndCap
p1482
aVJetMET/Jet/Cleanedak4PFJetsCHS/ChMultiplicity_mediumPt_Barrel
p1483
aVJetMET/Jet/Cleanedak4PFJetsCHS/ChMultiplicity_mediumPt_EndCap
p1484
aVJetMET/Jet/Cleanedak4PFJetsCHS/ChMultiplicity_lowPt_Barrel
p1485
aVJetMET/Jet/Cleanedak4PFJetsCHS/ChMultiplicity_lowPt_EndCap
p1486
aVJetMET/Jet/Cleanedak4PFJetsCHS/Constituents
p1487
aVJetMET/Jet/Cleanedak4PFJetsCHS/Eta
p1488
aVJetMET/Jet/Cleanedak4PFJetsCHS/Eta_uncor
p1489
aVJetMET/Jet/Cleanedak4PFJetsCHS/JetEnergyCorr
p1490
aVJetMET/Jet/Cleanedak4PFJetsCHS/NJets
p1491
aVJetMET/Jet/Cleanedak4PFJetsCHS/Phi
p1492
aVJetMET/Jet/Cleanedak4PFJetsCHS/Phi_Barrel
p1493
aVJetMET/Jet/Cleanedak4PFJetsCHS/Phi_EndCap
p1494
aVJetMET/Jet/Cleanedak4PFJetsCHS/Pt
p1495
aVJetMET/MET/pfMETT1/Cleaned/METSig
p1496
aVJetMET/vertices
p1497
aVMuons/MuonRecoAnalyzer/GlbMuon_Glb_pt
p1498
aVMuons/MuonRecoAnalyzer/GlbMuon_Glb_eta
p1499
aVMuons/MuonRecoAnalyzer/GlbMuon_Glb_phi
p1500
aVMuons/MuonRecoAnalyzer/Res_TkGlb_qOverlap
p1501
aVMuons/diMuonHistograms/GlbGlbMuon_LM
p1502
aVMuons/diMuonHistograms/GlbGlbMuon_HM
p1503
aVMuons/Isolation/global/relPFIso_R03
p1504
aVMuons/globalMuons/GeneralProperties/NumberOfMeanRecHitsPerTrack_glb
p1505
aVMuons/standAloneMuonsUpdatedAtVtx/HitProperties/NumberOfValidRecHitsPerTrack_sta
p1506
aVMuons/MuonRecoOneHLT/GlbMuon_Glb_pt
p1507
aVMuons/MuonRecoOneHLT/GlbMuon_Glb_eta
p1508
atp1509
Rp1510
(dp1511
g21
I00
sg109
I00
sg23
I00
sg333
I1
sbsg1272
g0
(g715
g2
Ntp1512
Rp1513
(dp1514
g21
I00
sg109
I00
sg23
I00
sg110
g124
sbsg1273
g0
(g184
g2
Ntp1515
Rp1516
(dp1517
g21
I00
sg109
I00
sg23
I00
sg110
I00
sbsg1274
g0
(g184
g2
Ntp1518
Rp1519
(dp1520
g21
I00
sg109
I00
sg23
I00
sg110
I01
sbsg1275
g0
(g184
g2
Ntp1521
Rp1522
(dp1523
g21
I00
sg109
I00
sg23
I00
sg110
I00
sbsg24
g629
sg26
I13
sg1237
I01
sbsVRandomNumberGeneratorService
p1524
g0
(g991
g2
Ntp1525
Rp1526
(dp1527
g17
g1524
sg19
(lp1528
VexternalLHEProducer
p1529
aVgenerator
p1530
aVVtxSmeared
p1531
aVLHCTransport
p1532
aVhiSignalLHCTransport
p1533
aVg4SimHits
p1534
aVmix
p1535
aVmixData
p1536
aVsimSiStripDigiSimLink
p1537
aVsimMuonDTDigis
p1538
aVsimMuonCSCDigis
p1539
aVsimMuonRPCDigis
p1540
aVhiSignal
p1541
aVhiSignalG4SimHits
p1542
aVfamosPileUp
p1543
aVmixGenPU
p1544
aVmixSimCaloHits
p1545
aVmixRecoTracks
p1546
aVfastSimProducer
p1547
aVfastTrackerRecHits
p1548
ag285
aVecalPreshowerRecHit
p1549
ag238
ag258
ag122
aVparamMuons
p1550
aVl1ParamMuons
p1551
aVMuonSimHits
p1552
aVCTPPSFastRecHits
p1553
aVsimBeamSpotFilter
p1554
aVRPixDetDigitizer
p1555
aVRPSiDetDigitizer
p1556
aVsaveFileName
p1557
aVsimMuonGEMDigis
p1558
asg21
I00
sg22
Nsg1529
g0
(g1015
g2
Ntp1559
Rp1560
(dp1561
g21
I00
sg109
I01
sg23
I00
sg19
(lp1562
VinitialSeed
p1563
aVengineName
p1564
asg22
Nsg1563
g0
(g321
g2
Ntp1565
Rp1566
(dp1567
g21
I00
sg109
I00
sg23
I00
sg110
I234567
sbsg1564
g0
(g715
g2
Ntp1568
Rp1569
(dp1570
g21
I00
sg109
I00
sg23
I00
sg110
VMixMaxRng
p1571
sbsbsg23
I01
sg1530
g0
(g1015
g2
Ntp1572
Rp1573
(dp1574
g21
I00
sg109
I01
sg23
I00
sg19
(lp1575
g1563
ag1564
asg22
Nsg1563
g0
(g321
g2
Ntp1576
Rp1577
(dp1578
g21
I00
sg109
I00
sg23
I00
sg110
I123456789
sbsg1564
g1569
sbsg1531
g0
(g1015
g2
Ntp1579
Rp1580
(dp1581
g21
I00
sg109
I01
sg23
I00
sg19
(lp1582
g1563
ag1564
asg22
Nsg1563
g0
(g321
g2
Ntp1583
Rp1584
(dp1585
g21
I00
sg109
I00
sg23
I00
sg110
I98765432
sbsg1564
g1569
sbsg1532
g0
(g1015
g2
Ntp1586
Rp1587
(dp1588
g21
I00
sg109
I01
sg23
I00
sg19
(lp1589
g1563
ag1564
asg22
Nsg1563
g0
(g321
g2
Ntp1590
Rp1591
(dp1592
g21
I00
sg109
I00
sg23
I00
sg110
I87654321
sbsg1564
g0
(g715
g2
Ntp1593
Rp1594
(dp1595
g21
I00
sg109
I00
sg23
I00
sg110
VTRandom3
p1596
sbsbsg1533
g0
(g1015
g2
Ntp1597
Rp1598
(dp1599
g21
I00
sg109
I01
sg23
I00
sg19
(lp1600
g1563
ag1564
asg22
Nsg1563
g0
(g321
g2
Ntp1601
Rp1602
(dp1603
g21
I00
sg109
I00
sg23
I00
sg110
I88776655
sbsg1564
g0
(g715
g2
Ntp1604
Rp1605
(dp1606
g21
I00
sg109
I00
sg23
I00
sg110
g1571
sbsbsg1534
g0
(g1015
g2
Ntp1607
Rp1608
(dp1609
g21
I00
sg109
I01
sg23
I00
sg19
(lp1610
g1563
ag1564
asg22
Nsg1563
g0
(g321
g2
Ntp1611
Rp1612
(dp1613
g21
I00
sg109
I00
sg23
I00
sg110
I11
sbsg1564
g1569
sbsg1535
g0
(g1015
g2
Ntp1614
Rp1615
(dp1616
g21
I00
sg109
I01
sg23
I00
sg19
(lp1617
g1563
ag1564
asg22
Nsg1563
g0
(g321
g2
Ntp1618
Rp1619
(dp1620
g21
I00
sg109
I00
sg23
I00
sg110
I12345
sbsg1564
g1569
sbsg1536
g0
(g1015
g2
Ntp1621
Rp1622
(dp1623
g21
I00
sg109
I01
sg23
I00
sg19
(lp1624
g1563
ag1564
asg22
Nsg1563
g0
(g321
g2
Ntp1625
Rp1626
(dp1627
g21
I00
sg109
I00
sg23
I00
sg110
I12345
sbsg1564
g1569
sbsg1537
g0
(g1015
g2
Ntp1628
Rp1629
(dp1630
g21
I00
sg109
I01
sg23
I00
sg19
(lp1631
g1563
ag1564
asg22
Nsg1563
g0
(g321
g2
Ntp1632
Rp1633
(dp1634
g21
I00
sg109
I00
sg23
I00
sg110
I1234567
sbsg1564
g1569
sbsg1538
g0
(g1015
g2
Ntp1635
Rp1636
(dp1637
g21
I00
sg109
I01
sg23
I00
sg19
(lp1638
g1563
ag1564
asg22
Nsg1563
g0
(g321
g2
Ntp1639
Rp1640
(dp1641
g21
I00
sg109
I00
sg23
I00
sg110
I1234567
sbsg1564
g1569
sbsg1539
g0
(g1015
g2
Ntp1642
Rp1643
(dp1644
g21
I00
sg109
I01
sg23
I00
sg19
(lp1645
g1563
ag1564
asg22
Nsg1563
g0
(g321
g2
Ntp1646
Rp1647
(dp1648
g21
I00
sg109
I00
sg23
I00
sg110
I11223344
sbsg1564
g1569
sbsg1540
g0
(g1015
g2
Ntp1649
Rp1650
(dp1651
g21
I00
sg109
I01
sg23
I00
sg19
(lp1652
g1563
ag1564
asg22
Nsg1563
g0
(g321
g2
Ntp1653
Rp1654
(dp1655
g21
I00
sg109
I00
sg23
I00
sg110
I1234567
sbsg1564
g1569
sbsg1541
g0
(g1015
g2
Ntp1656
Rp1657
(dp1658
g21
I00
sg109
I01
sg23
I00
sg19
(lp1659
g1563
ag1564
asg22
Nsg1563
g0
(g321
g2
Ntp1660
Rp1661
(dp1662
g21
I00
sg109
I00
sg23
I00
sg110
I123456789
sbsg1564
g1569
sbsg1542
g0
(g1015
g2
Ntp1663
Rp1664
(dp1665
g21
I00
sg109
I01
sg23
I00
sg19
(lp1666
g1563
ag1564
asg22
Nsg1563
g0
(g321
g2
Ntp1667
Rp1668
(dp1669
g21
I00
sg109
I00
sg23
I00
sg110
I11
sbsg1564
g1569
sbsg1543
g0
(g1015
g2
Ntp1670
Rp1671
(dp1672
g21
I00
sg109
I01
sg23
I00
sg19
(lp1673
g1563
ag1564
asg22
Nsg1563
g0
(g321
g2
Ntp1674
Rp1675
(dp1676
g21
I00
sg109
I00
sg23
I00
sg110
I918273
sbsg1564
g1605
sbsg1544
g0
(g1015
g2
Ntp1677
Rp1678
(dp1679
g21
I00
sg109
I01
sg23
I00
sg19
(lp1680
g1563
ag1564
asg22
Nsg1563
g0
(g321
g2
Ntp1681
Rp1682
(dp1683
g21
I00
sg109
I00
sg23
I00
sg110
I918273
sbsg1564
g1605
sbsg1545
g0
(g1015
g2
Ntp1684
Rp1685
(dp1686
g21
I00
sg109
I01
sg23
I00
sg19
(lp1687
g1563
ag1564
asg22
Nsg1563
g0
(g321
g2
Ntp1688
Rp1689
(dp1690
g21
I00
sg109
I00
sg23
I00
sg110
I918273
sbsg1564
g1605
sbsg1546
g0
(g1015
g2
Ntp1691
Rp1692
(dp1693
g21
I00
sg109
I01
sg23
I00
sg19
(lp1694
g1563
ag1564
asg22
Nsg1563
g0
(g321
g2
Ntp1695
Rp1696
(dp1697
g21
I00
sg109
I00
sg23
I00
sg110
I918273
sbsg1564
g1605
sbsg1547
g0
(g1015
g2
Ntp1698
Rp1699
(dp1700
g21
I00
sg109
I01
sg23
I00
sg19
(lp1701
g1563
ag1564
asg22
Nsg1563
g0
(g321
g2
Ntp1702
Rp1703
(dp1704
g21
I00
sg109
I00
sg23
I00
sg110
I13579
sbsg1564
g1605
sbsg1548
g0
(g1015
g2
Ntp1705
Rp1706
(dp1707
g21
I00
sg109
I01
sg23
I00
sg19
(lp1708
g1563
ag1564
asg22
Nsg1563
g0
(g321
g2
Ntp1709
Rp1710
(dp1711
g21
I00
sg109
I00
sg23
I00
sg110
I24680
sbsg1564
g1605
sbsg285
g0
(g1015
g2
Ntp1712
Rp1713
(dp1714
g21
I00
sg109
I01
sg23
I00
sg19
(lp1715
g1563
ag1564
asg22
Nsg1563
g0
(g321
g2
Ntp1716
Rp1717
(dp1718
g21
I00
sg109
I00
sg23
I00
sg110
I654321
sbsg1564
g1605
sbsg1549
g0
(g1015
g2
Ntp1719
Rp1720
(dp1721
g21
I00
sg109
I01
sg23
I00
sg19
(lp1722
g1563
ag1564
asg22
Nsg1563
g0
(g321
g2
Ntp1723
Rp1724
(dp1725
g21
I00
sg109
I00
sg23
I00
sg110
I6541321
sbsg1564
g1605
sbsg238
g0
(g1015
g2
Ntp1726
Rp1727
(dp1728
g21
I00
sg109
I01
sg23
I00
sg19
(lp1729
g1563
ag1564
asg22
Nsg1563
g0
(g321
g2
Ntp1730
Rp1731
(dp1732
g21
I00
sg109
I00
sg23
I00
sg110
I541321
sbsg1564
g1605
sbsg258
g0
(g1015
g2
Ntp1733
Rp1734
(dp1735
g21
I00
sg109
I01
sg23
I00
sg19
(lp1736
g1563
ag1564
asg22
Nsg1563
g0
(g321
g2
Ntp1737
Rp1738
(dp1739
g21
I00
sg109
I00
sg23
I00
sg110
I541321
sbsg1564
g1605
sbsg122
g0
(g1015
g2
Ntp1740
Rp1741
(dp1742
g21
I00
sg109
I01
sg23
I00
sg19
(lp1743
g1563
ag1564
asg22
Nsg1563
g0
(g321
g2
Ntp1744
Rp1745
(dp1746
g21
I00
sg109
I00
sg23
I00
sg110
I541321
sbsg1564
g1605
sbsg1550
g0
(g1015
g2
Ntp1747
Rp1748
(dp1749
g21
I00
sg109
I01
sg23
I00
sg19
(lp1750
g1563
ag1564
asg22
Nsg1563
g0
(g321
g2
Ntp1751
Rp1752
(dp1753
g21
I00
sg109
I00
sg23
I00
sg110
I54525
sbsg1564
g1605
sbsg1551
g0
(g1015
g2
Ntp1754
Rp1755
(dp1756
g21
I00
sg109
I01
sg23
I00
sg19
(lp1757
g1563
ag1564
asg22
Nsg1563
g0
(g321
g2
Ntp1758
Rp1759
(dp1760
g21
I00
sg109
I00
sg23
I00
sg110
I6453209
sbsg1564
g1605
sbsg1552
g0
(g1015
g2
Ntp1761
Rp1762
(dp1763
g21
I00
sg109
I01
sg23
I00
sg19
(lp1764
g1563
ag1564
asg22
Nsg1563
g0
(g321
g2
Ntp1765
Rp1766
(dp1767
g21
I00
sg109
I00
sg23
I00
sg110
I987346
sbsg1564
g1605
sbsg1553
g0
(g1015
g2
Ntp1768
Rp1769
(dp1770
g21
I00
sg109
I01
sg23
I00
sg19
(lp1771
g1563
ag1564
asg22
Nsg1563
g0
(g321
g2
Ntp1772
Rp1773
(dp1774
g21
I00
sg109
I00
sg23
I00
sg110
I1357987
sbsg1564
g1605
sbsg1554
g0
(g1015
g2
Ntp1775
Rp1776
(dp1777
g21
I00
sg109
I01
sg23
I00
sg19
(lp1778
g1563
ag1564
asg22
Nsg1563
g0
(g321
g2
Ntp1779
Rp1780
(dp1781
g21
I00
sg109
I00
sg23
I00
sg110
I87654321
sbsg1564
g1569
sbsg1555
g0
(g1015
g2
Ntp1782
Rp1783
(dp1784
g21
I00
sg109
I01
sg23
I00
sg19
(lp1785
g1563
ag1564
asg22
Nsg1563
g0
(g321
g2
Ntp1786
Rp1787
(dp1788
g21
I00
sg109
I00
sg23
I00
sg110
I137137
sbsg1564
g1569
sbsg1556
g0
(g1015
g2
Ntp1789
Rp1790
(dp1791
g21
I00
sg109
I01
sg23
I00
sg19
(lp1792
g1563
ag1564
asg22
Nsg1563
g0
(g321
g2
Ntp1793
Rp1794
(dp1795
g21
I00
sg109
I00
sg23
I00
sg110
I137137
sbsg1564
g1569
sbsg1557
g0
(g715
g2
Ntp1796
Rp1797
(dp1798
g21
I00
sg109
I00
sg23
I00
sg110
g124
sbsg24
g629
sg26
I13
sg1237
I01
sg1558
g0
(g1015
g2
Ntp1799
Rp1800
(dp1801
g21
I00
sg109
I01
sg23
I00
sg19
(lp1802
g1563
ag1564
asg22
Nsg1563
g0
(g321
g2
Ntp1803
Rp1804
(dp1805
g21
I00
sg109
I00
sg23
I00
sg110
I1234567
sbsg1564
g1569
sbsbsVTFileService
p1806
g0
(g991
g2
Ntp1807
Rp1808
(dp1809
g17
g1806
sg19
(lp1810
VfileName
p1811
asg21
I00
sg22
Nsg1811
g0
(g715
g2
Ntp1812
Rp1813
(dp1814
g21
I00
sg109
I01
sg23
I00
sg110
Voutput.root
p1815
sbsg23
I00
sg24
g629
sg26
I13
sg1237
I01
sbssV_Process__essources
p1816
(dp1817
VHepPDTESSource
p1818
g0
(cFWCore.ParameterSet.Modules
ESSource
p1819
g2
Ntp1820
Rp1821
(dp1822
g17
g1818
sg19
(lp1823
VpdtFileName
p1824
asg21
I00
sg22
Nsg1824
g0
(cFWCore.ParameterSet.Types
FileInPath
p1825
g2
Ntp1826
Rp1827
(dp1828
g21
I00
sg109
I01
sg23
I00
sg110
VSimGeneral/HepPDTESSource/data/pythiaparticle.tbl
p1829
sbsg23
I00
sg24
V/cvmfs/cms-ib.cern.ch/sw/x86_64/week0/el8_amd64_gcc12/cms/cmssw/CMSSW_14_1_X_2024-06-16-0000/src/SimGeneral/HepPDTESSource/python/pythiapdt_cfi.py
p1830
sg26
I3
sg27
g1818
sbsVeegeom
p1831
g0
(g1819
g2
Ntp1832
Rp1833
(dp1834
g17
VEmptyESSource
p1835
sg19
(lp1836
VrecordName
p1837
aViovIsRunNotTime
p1838
aVfirstValid
p1839
asg21
I00
sg22
Nsg1837
g0
(g715
g2
Ntp1840
Rp1841
(dp1842
g21
I00
sg109
I01
sg23
I00
sg110
VEcalMappingRcd
p1843
sbsg23
I00
sg1838
g0
(g184
g2
Ntp1844
Rp1845
(dp1846
g21
I00
sg109
I01
sg23
I00
sg110
I01
sbsg1839
g0
(cFWCore.ParameterSet.Types
vuint32
p1847
g145
(lp1848
I1
atp1849
Rp1850
(dp1851
g21
I00
sg109
I01
sg23
I00
sbsg24
V/cvmfs/cms-ib.cern.ch/sw/x86_64/week0/el8_amd64_gcc12/cms/cmssw/CMSSW_14_1_X_2024-06-16-0000/src/Geometry/EcalMapping/python/EcalMappingRecord_cfi.py
p1852
sg26
I3
sg27
g1831
sbsVessourceEcalSev
p1853
g0
(g1819
g2
Ntp1854
Rp1855
(dp1856
g17
g1835
sg19
(lp1857
g1837
ag1839
ag1838
asg21
I00
sg22
Nsg1837
g0
(g715
g2
Ntp1858
Rp1859
(dp1860
g21
I00
sg109
I01
sg23
I00
sg110
VEcalSeverityLevelAlgoRcd
p1861
sbsg23
I00
sg1839
g0
(g1847
g145
(lp1862
I1
atp1863
Rp1864
(dp1865
g21
I00
sg109
I01
sg23
I00
sbsg1838
g0
(g184
g2
Ntp1866
Rp1867
(dp1868
g21
I00
sg109
I01
sg23
I00
sg110
I01
sbsg24
V/cvmfs/cms-ib.cern.ch/sw/x86_64/week0/el8_amd64_gcc12/cms/cmssw/CMSSW_14_1_X_2024-06-16-0000/src/RecoLocalCalo/EcalRecAlgos/python/EcalSeverityLevelESProducer_cfi.py
p1869
sg26
I10
sg27
g1853
sbsVGlobalTag
p1870
g0
(g1819
g2
Ntp1871
Rp1872
(dp1873
g17
VPoolDBESSource
p1874
sg19
(lp1875
VDBParameters
p1876
aVconnect
p1877
aVglobaltag
p1878
aVsnapshotTime
p1879
aVtoGet
p1880
aVDumpStat
p1881
aVReconnectEachRun
p1882
aVRefreshAlways
p1883
aVRefreshEachRun
p1884
aVRefreshOpenIOVs
p1885
aVpfnPostfix
p1886
aVpfnPrefix
p1887
asg21
I00
sg22
Nsg1876
g0
(g1015
g2
Ntp1888
Rp1889
(dp1890
g21
I00
sg109
I01
sg23
I00
sg19
(lp1891
VauthenticationPath
p1892
aVauthenticationSystem
p1893
aVsecurity
p1894
aVmessageLevel
p1895
aVconnectionTimeout
p1896
asg22
Nsg1892
g0
(g715
g2
Ntp1897
Rp1898
(dp1899
g21
I00
sg109
I00
sg23
I00
sg110
g124
sbsg1893
g0
(g305
g2
Ntp1900
Rp1901
(dp1902
g21
I00
sg109
I00
sg23
I00
sg110
I0
sbsg1894
g0
(g715
g2
Ntp1903
Rp1904
(dp1905
g21
I00
sg109
I00
sg23
I00
sg110
g124
sbsg1895
g0
(g305
g2
Ntp1906
Rp1907
(dp1908
g21
I00
sg109
I00
sg23
I00
sg110
I0
sbsg1896
g0
(g305
g2
Ntp1909
Rp1910
(dp1911
g21
I00
sg109
I00
sg23
I00
sg110
I0
sbsbsg23
I01
sg1877
g0
(g715
g2
Ntp1912
Rp1913
(dp1914
g21
I00
sg109
I01
sg23
I00
sg110
Vfrontier://FrontierProd/CMS_CONDITIONS
p1915
sbsg1878
g0
(g715
g2
Ntp1916
Rp1917
(dp1918
g21
I00
sg109
I01
sg23
I00
sg110
V140X_dataRun3_Prompt_v2
p1919
sbsg1879
g0
(g715
g2
Ntp1920
Rp1921
(dp1922
g21
I00
sg109
I01
sg23
I00
sg110
g124
sbsg1880
g0
(cFWCore.ParameterSet.Types
VPSet
p1923
g145
(lp1924
tp1925
Rp1926
(dp1927
g21
I00
sg109
I01
sg23
I00
sg333
I1
sbsg1881
g0
(g184
g2
Ntp1928
Rp1929
(dp1930
g21
I00
sg109
I00
sg23
I00
sg110
I00
sbsg1882
g0
(g184
g2
Ntp1931
Rp1932
(dp1933
g21
I00
sg109
I00
sg23
I00
sg110
I00
sbsg1883
g0
(g184
g2
Ntp1934
Rp1935
(dp1936
g21
I00
sg109
I00
sg23
I00
sg110
I00
sbsg1884
g0
(g184
g2
Ntp1937
Rp1938
(dp1939
g21
I00
sg109
I00
sg23
I00
sg110
I00
sbsg1885
g0
(g184
g2
Ntp1940
Rp1941
(dp1942
g21
I00
sg109
I00
sg23
I00
sg110
I00
sbsg1886
g0
(g715
g2
Ntp1943
Rp1944
(dp1945
g21
I00
sg109
I00
sg23
I00
sg110
g124
sbsg1887
g0
(g715
g2
Ntp1946
Rp1947
(dp1948
g21
I00
sg109
I00
sg23
I00
sg110
g124
sbsg24
V/cvmfs/cms-ib.cern.ch/sw/x86_64/week0/el8_amd64_gcc12/cms/cmssw/CMSSW_14_1_X_2024-06-16-0000/src/CondCore/ESSources/python/CondDBESSource_cfi.py
p1949
sg26
I8
sg27
g1870
sbsVHcalTimeSlewEP
p1950
g0
(g1819
g2
Ntp1951
Rp1952
(dp1953
g17
g1950
sg19
(lp1954
VappendToDataLabel
p1955
aVtimeSlewParametersM2
p1956
aVtimeSlewParametersM3
p1957
asg21
I00
sg22
Nsg1955
g0
(g715
g2
Ntp1958
Rp1959
(dp1960
g21
I00
sg109
I01
sg23
I00
sg110
VHBHE
p1961
sbsg23
I00
sg1956
g0
(g1923
g145
(lp1962
g0
(g1015
g2
Ntp1963
Rp1964
(dp1965
g21
I00
sg109
I01
sg23
I00
sg19
(lp1966
Vtzero
p1967
aVslope
p1968
aVtmax
p1969
asg22
Nsg1967
g0
(g105
g2
Ntp1970
Rp1971
(dp1972
g21
I00
sg109
I01
sg23
I00
sg110
F23.960177
sbsg1968
g0
(g105
g2
Ntp1973
Rp1974
(dp1975
g21
I00
sg109
I01
sg23
I00
sg110
F-3.178648
sbsg1969
g0
(g105
g2
Ntp1976
Rp1977
(dp1978
g21
I00
sg109
I01
sg23
I00
sg110
F16.0
sbsbag0
(g1015
g2
Ntp1979
Rp1980
(dp1981
g21
I00
sg109
I01
sg23
I00
sg19
(lp1982
g1967
ag1968
ag1969
asg22
Nsg1967
g0
(g105
g2
Ntp1983
Rp1984
(dp1985
g21
I00
sg109
I01
sg23
I00
sg110
F11.977461
sbsg1968
g0
(g105
g2
Ntp1986
Rp1987
(dp1988
g21
I00
sg109
I01
sg23
I00
sg110
F-1.5610227
sbsg1969
g0
(g105
g2
Ntp1989
Rp1990
(dp1991
g21
I00
sg109
I01
sg23
I00
sg110
F10.0
sbsbag0
(g1015
g2
Ntp1992
Rp1993
(dp1994
g21
I00
sg109
I01
sg23
I00
sg19
(lp1995
g1967
ag1968
ag1969
asg22
Nsg1967
g0
(g105
g2
Ntp1996
Rp1997
(dp1998
g21
I00
sg109
I01
sg23
I00
sg110
F9.109694
sbsg1968
g0
(g105
g2
Ntp1999
Rp2000
(dp2001
g21
I00
sg109
I01
sg23
I00
sg110
F-1.075824
sbsg1969
g0
(g105
g2
Ntp2002
Rp2003
(dp2004
g21
I00
sg109
I01
sg23
I00
sg110
F6.25
sbsbatp2005
Rp2006
(dp2007
g21
I00
sg109
I01
sg23
I00
sg333
I1
sbsg1957
g0
(g1923
g145
(lp2008
g0
(g1015
g2
Ntp2009
Rp2010
(dp2011
g21
I00
sg109
I01
sg23
I00
sg19
(lp2012
Vcap
p2013
aVtspar0
p2014
aVtspar1
p2015
aVtspar2
p2016
aVtspar0_siPM
p2017
aVtspar1_siPM
p2018
aVtspar2_siPM
p2019
asg22
Nsg2013
g0
(g105
g2
Ntp2020
Rp2021
(dp2022
g21
I00
sg109
I01
sg23
I00
sg110
F6.0
sbsg2014
g0
(g105
g2
Ntp2023
Rp2024
(dp2025
g21
I00
sg109
I01
sg23
I00
sg110
F12.2999
sbsg2015
g0
(g105
g2
Ntp2026
Rp2027
(dp2028
g21
I00
sg109
I01
sg23
I00
sg110
F-2.19142
sbsg2016
g0
(g105
g2
Ntp2029
Rp2030
(dp2031
g21
I00
sg109
I01
sg23
I00
sg110
F0.0
sbsg2017
g0
(g105
g2
Ntp2032
Rp2033
(dp2034
g21
I00
sg109
I01
sg23
I00
sg110
F0.0
sbsg2018
g0
(g105
g2
Ntp2035
Rp2036
(dp2037
g21
I00
sg109
I01
sg23
I00
sg110
F0.0
sbsg2019
g0
(g105
g2
Ntp2038
Rp2039
(dp2040
g21
I00
sg109
I01
sg23
I00
sg110
F0.0
sbsbag0
(g1015
g2
Ntp2041
Rp2042
(dp2043
g21
I00
sg109
I01
sg23
I00
sg19
(lp2044
g2013
ag2014
ag2015
ag2016
ag2017
ag2018
ag2019
asg22
Nsg2013
g0
(g105
g2
Ntp2045
Rp2046
(dp2047
g21
I00
sg109
I01
sg23
I00
sg110
F6.0
sbsg2014
g0
(g105
g2
Ntp2048
Rp2049
(dp2050
g21
I00
sg109
I01
sg23
I00
sg110
F15.5
sbsg2015
g0
(g105
g2
Ntp2051
Rp2052
(dp2053
g21
I00
sg109
I01
sg23
I00
sg110
F-3.2
sbsg2016
g0
(g105
g2
Ntp2054
Rp2055
(dp2056
g21
I00
sg109
I01
sg23
I00
sg110
F32.0
sbsg2017
g0
(g105
g2
Ntp2057
Rp2058
(dp2059
g21
I00
sg109
I01
sg23
I00
sg110
F0.0
sbsg2018
g0
(g105
g2
Ntp2060
Rp2061
(dp2062
g21
I00
sg109
I01
sg23
I00
sg110
F0.0
sbsg2019
g0
(g105
g2
Ntp2063
Rp2064
(dp2065
g21
I00
sg109
I01
sg23
I00
sg110
F0.0
sbsbag0
(g1015
g2
Ntp2066
Rp2067
(dp2068
g21
I00
sg109
I01
sg23
I00
sg19
(lp2069
g2013
ag2014
ag2015
ag2016
ag2017
ag2018
ag2019
asg22
Nsg2013
g0
(g105
g2
Ntp2070
Rp2071
(dp2072
g21
I00
sg109
I01
sg23
I00
sg110
F6.0
sbsg2014
g0
(g105
g2
Ntp2073
Rp2074
(dp2075
g21
I00
sg109
I01
sg23
I00
sg110
F12.2999
sbsg2015
g0
(g105
g2
Ntp2076
Rp2077
(dp2078
g21
I00
sg109
I01
sg23
I00
sg110
F-2.19142
sbsg2016
g0
(g105
g2
Ntp2079
Rp2080
(dp2081
g21
I00
sg109
I01
sg23
I00
sg110
F0.0
sbsg2017
g0
(g105
g2
Ntp2082
Rp2083
(dp2084
g21
I00
sg109
I01
sg23
I00
sg110
F0.0
sbsg2018
g0
(g105
g2
Ntp2085
Rp2086
(dp2087
g21
I00
sg109
I01
sg23
I00
sg110
F0.0
sbsg2019
g0
(g105
g2
Ntp2088
Rp2089
(dp2090
g21
I00
sg109
I01
sg23
I00
sg110
F0.0
sbsbag0
(g1015
g2
Ntp2091
Rp2092
(dp2093
g21
I00
sg109
I01
sg23
I00
sg19
(lp2094
g2013
ag2014
ag2015
ag2016
ag2017
ag2018
ag2019
asg22
Nsg2013
g0
(g105
g2
Ntp2095
Rp2096
(dp2097
g21
I00
sg109
I01
sg23
I00
sg110
F6.0
sbsg2014
g0
(g105
g2
Ntp2098
Rp2099
(dp2100
g21
I00
sg109
I01
sg23
I00
sg110
F12.2999
sbsg2015
g0
(g105
g2
Ntp2101
Rp2102
(dp2103
g21
I00
sg109
I01
sg23
I00
sg110
F-2.19142
sbsg2016
g0
(g105
g2
Ntp2104
Rp2105
(dp2106
g21
I00
sg109
I01
sg23
I00
sg110
F0.0
sbsg2017
g0
(g105
g2
Ntp2107
Rp2108
(dp2109
g21
I00
sg109
I01
sg23
I00
sg110
F0.0
sbsg2018
g0
(g105
g2
Ntp2110
Rp2111
(dp2112
g21
I00
sg109
I01
sg23
I00
sg110
F0.0
sbsg2019
g0
(g105
g2
Ntp2113
Rp2114
(dp2115
g21
I00
sg109
I01
sg23
I00
sg110
F0.0
sbsbatp2116
Rp2117
(dp2118
g21
I00
sg109
I01
sg23
I00
sg333
I1
sbsg24
V/cvmfs/cms-ib.cern.ch/sw/x86_64/week0/el8_amd64_gcc12/cms/cmssw/CMSSW_14_1_X_2024-06-16-0000/src/CalibCalorimetry/HcalPlugins/python/HcalTimeSlew_cff.py
p2119
sg26
I3
sg27
g1950
sbsVes_hardcode
p2120
g0
(g1819
g2
Ntp2121
Rp2122
(dp2123
g17
VHcalHardcodeCalibrations
p2124
sg19
(lp2125
g1880
aViLumi
p2126
aVHBRecalibration
p2127
aVHBreCalibCutoff
p2128
aVHBmeanenergies
p2129
aVHERecalibration
p2130
aVHEreCalibCutoff
p2131
aVHEmeanenergies
p2132
aVHFRecalibration
p2133
aVHFRecalParameterBlock
p2134
aVGainWidthsForTrigPrims
p2135
aVuseHBUpgrade
p2136
aVuseHEUpgrade
p2137
aVuseHFUpgrade
p2138
aVuseHOUpgrade
p2139
aVtestHFQIE10
p2140
aVtestHEPlan1
p2141
aVkillHE
p2142
aVuseLayer0Weight
p2143
aVuseIeta18depth1
p2144
aVhb
p2145
aVhe
p2146
aVhf
p2147
aVho
p2148
aVhbUpgrade
p2149
aVheUpgrade
p2150
aVhfUpgrade
p2151
aVSiPMCharacteristics
p2152
asg21
I00
sg22
Nsg1880
g0
(g325
g145
(lp2153
VGainWidths
p2154
atp2155
Rp2156
(dp2157
g21
I00
sg109
I00
sg23
I00
sg333
I1
sbsg23
I01
sg2126
g0
(g105
g2
Ntp2158
Rp2159
(dp2160
g21
I00
sg109
I01
sg23
I00
sg110
F-1.0
sbsg2127
g0
(g184
g2
Ntp2161
Rp2162
(dp2163
g21
I00
sg109
I01
sg23
I00
sg110
I00
sbsg2128
g0
(g105
g2
Ntp2164
Rp2165
(dp2166
g21
I00
sg109
I01
sg23
I00
sg110
F100.0
sbsg2129
g0
(g1825
g2
Ntp2167
Rp2168
(dp2169
g21
I00
sg109
I01
sg23
I00
sg110
VCalibCalorimetry/HcalPlugins/data/meanenergiesHB.txt
p2170
sbsg2130
g0
(g184
g2
Ntp2171
Rp2172
(dp2173
g21
I00
sg109
I01
sg23
I00
sg110
I00
sbsg2131
g0
(g105
g2
Ntp2174
Rp2175
(dp2176
g21
I00
sg109
I01
sg23
I00
sg110
F100.0
sbsg2132
g0
(g1825
g2
Ntp2177
Rp2178
(dp2179
g21
I00
sg109
I01
sg23
I00
sg110
VCalibCalorimetry/HcalPlugins/data/meanenergiesHE.txt
p2180
sbsg2133
g0
(g184
g2
Ntp2181
Rp2182
(dp2183
g21
I00
sg109
I01
sg23
I00
sg110
I00
sbsg2134
g0
(g1015
g2
Ntp2184
Rp2185
(dp2186
g21
I00
sg109
I01
sg23
I00
sg19
(lp2187
VHFdepthOneParameterA
p2188
aVHFdepthOneParameterB
p2189
aVHFdepthTwoParameterA
p2190
aVHFdepthTwoParameterB
p2191
asg22
Nsg2188
g0
(g144
g145
(lp2192
F0.004123
aF0.00602
aF0.008201
aF0.010489
aF0.013379
aF0.016997
aF0.021464
aF0.027371
aF0.034195
aF0.044807
aF0.058939
aF0.125497
atp2193
Rp2194
(dp2195
g21
I00
sg109
I01
sg23
I00
sbsg2189
g0
(g144
g145
(lp2196
F-4e-06
aF-2e-06
aF0.0
aF4e-06
aF1.5e-05
aF2.6e-05
aF6.3e-05
aF8.4e-05
aF0.00016
aF0.000107
aF0.000425
aF0.000209
atp2197
Rp2198
(dp2199
g21
I00
sg109
I01
sg23
I00
sbsg2190
g0
(g144
g145
(lp2200
F0.002861
aF0.004168
aF0.0064
aF0.008388
aF0.011601
aF0.014425
aF0.018633
aF0.023232
aF0.028274
aF0.035447
aF0.051579
aF0.086593
atp2201
Rp2202
(dp2203
g21
I00
sg109
I01
sg23
I00
sbsg2191
g0
(g144
g145
(lp2204
F-2e-06
aF-0.0
aF-7e-06
aF-6e-06
aF-2e-06
aF1e-06
aF1.9e-05
aF3.1e-05
aF6.7e-05
aF1.2e-05
aF0.000157
aF-3e-06
atp2205
Rp2206
(dp2207
g21
I00
sg109
I01
sg23
I00
sbsg27
g2134
sbsg2135
g0
(g184
g2
Ntp2208
Rp2209
(dp2210
g21
I00
sg109
I01
sg23
I00
sg110
I00
sbsg2136
g0
(g184
g2
Ntp2211
Rp2212
(dp2213
g21
I00
sg109
I01
sg23
I00
sg110
I01
sbsg2137
g0
(g184
g2
Ntp2214
Rp2215
(dp2216
g21
I00
sg109
I01
sg23
I00
sg110
I01
sbsg2138
g0
(g184
g2
Ntp2217
Rp2218
(dp2219
g21
I00
sg109
I01
sg23
I00
sg110
I01
sbsg2139
g0
(g184
g2
Ntp2220
Rp2221
(dp2222
g21
I00
sg109
I01
sg23
I00
sg110
I01
sbsg2140
g0
(g184
g2
Ntp2223
Rp2224
(dp2225
g21
I00
sg109
I01
sg23
I00
sg110
I00
sbsg2141
g0
(g184
g2
Ntp2226
Rp2227
(dp2228
g21
I00
sg109
I01
sg23
I00
sg110
I00
sbsg2142
g0
(g184
g2
Ntp2229
Rp2230
(dp2231
g21
I00
sg109
I01
sg23
I00
sg110
I00
sbsg2143
g0
(g184
g2
Ntp2232
Rp2233
(dp2234
g21
I00
sg109
I01
sg23
I00
sg110
I01
sbsg2144
g0
(g184
g2
Ntp2235
Rp2236
(dp2237
g21
I00
sg109
I01
sg23
I00
sg110
I00
sbsg2145
g0
(g1015
g2
Ntp2238
Rp2239
(dp2240
g21
I00
sg109
I01
sg23
I00
sg19
(lp2241
Vpedestal
p2242
aVpedestalWidth
p2243
aVgain
p2244
aVgainWidth
p2245
aVzsThreshold
p2246
aVqieType
p2247
aVqieOffset
p2248
aVqieSlope
p2249
aVmcShape
p2250
aVrecoShape
p2251
aVphotoelectronsToAnalog
p2252
aVdarkCurrent
p2253
aVnoiseCorrelation
p2254
aVnoiseThreshold
p2255
aVseedThreshold
p2256
aVdoRadiationDamage
p2257
asg22
Nsg2242
g0
(g105
g2
Ntp2258
Rp2259
(dp2260
g21
I00
sg109
I01
sg23
I00
sg110
F3.285
sbsg2243
g0
(g105
g2
Ntp2261
Rp2262
(dp2263
g21
I00
sg109
I01
sg23
I00
sg110
F0.809
sbsg2244
g0
(g144
g145
(lp2264
F0.19
atp2265
Rp2266
(dp2267
g21
I00
sg109
I01
sg23
I00
sbsg2245
g0
(g144
g145
(lp2268
F0.0
atp2269
Rp2270
(dp2271
g21
I00
sg109
I01
sg23
I00
sbsg2246
g0
(g305
g2
Ntp2272
Rp2273
(dp2274
g21
I00
sg109
I01
sg23
I00
sg110
I8
sbsg2247
g0
(g305
g2
Ntp2275
Rp2276
(dp2277
g21
I00
sg109
I01
sg23
I00
sg110
I0
sbsg2248
g0
(g144
g145
(lp2278
F-0.49
aF1.8
aF7.2
aF37.9
atp2279
Rp2280
(dp2281
g21
I00
sg109
I01
sg23
I00
sbsg2249
g0
(g144
g145
(lp2282
F0.912
aF0.917
aF0.922
aF0.923
atp2283
Rp2284
(dp2285
g21
I00
sg109
I01
sg23
I00
sbsg2250
g0
(g305
g2
Ntp2286
Rp2287
(dp2288
g21
I00
sg109
I01
sg23
I00
sg110
I125
sbsg2251
g0
(g305
g2
Ntp2289
Rp2290
(dp2291
g21
I00
sg109
I01
sg23
I00
sg110
I105
sbsg2252
g0
(g105
g2
Ntp2292
Rp2293
(dp2294
g21
I00
sg109
I01
sg23
I00
sg110
F0.3305
sbsg2253
g0
(g144
g145
(lp2295
F0.0
atp2296
Rp2297
(dp2298
g21
I00
sg109
I01
sg23
I00
sbsg2254
g0
(g144
g145
(lp2299
F0.0
atp2300
Rp2301
(dp2302
g21
I00
sg109
I01
sg23
I00
sbsg2255
g0
(g105
g2
Ntp2303
Rp2304
(dp2305
g21
I00
sg109
I01
sg23
I00
sg110
F0.0
sbsg2256
g0
(g105
g2
Ntp2306
Rp2307
(dp2308
g21
I00
sg109
I01
sg23
I00
sg110
F0.1
sbsg2257
g0
(g184
g2
Ntp2309
Rp2310
(dp2311
g21
I00
sg109
I01
sg23
I00
sg110
I00
sbsbsg2146
g0
(g1015
g2
Ntp2312
Rp2313
(dp2314
g21
I00
sg109
I01
sg23
I00
sg19
(lp2315
g2242
ag2243
ag2244
ag2245
ag2246
ag2247
ag2248
ag2249
ag2250
ag2251
ag2252
ag2253
ag2254
ag2255
ag2256
ag2257
asg22
Nsg2242
g0
(g105
g2
Ntp2316
Rp2317
(dp2318
g21
I00
sg109
I01
sg23
I00
sg110
F3.163
sbsg2243
g0
(g105
g2
Ntp2319
Rp2320
(dp2321
g21
I00
sg109
I01
sg23
I00
sg110
F0.9698
sbsg2244
g0
(g144
g145
(lp2322
F0.23
atp2323
Rp2324
(dp2325
g21
I00
sg109
I01
sg23
I00
sbsg2245
g0
(g144
g145
(lp2326
I0
atp2327
Rp2328
(dp2329
g21
I00
sg109
I01
sg23
I00
sbsg2246
g0
(g305
g2
Ntp2330
Rp2331
(dp2332
g21
I00
sg109
I01
sg23
I00
sg110
I9
sbsg2247
g0
(g305
g2
Ntp2333
Rp2334
(dp2335
g21
I00
sg109
I01
sg23
I00
sg110
I0
sbsg2248
g0
(g144
g145
(lp2336
F-0.38
aF2.0
aF7.6
aF39.6
atp2337
Rp2338
(dp2339
g21
I00
sg109
I01
sg23
I00
sbsg2249
g0
(g144
g145
(lp2340
F0.912
aF0.916
aF0.92
aF0.922
atp2341
Rp2342
(dp2343
g21
I00
sg109
I01
sg23
I00
sbsg2250
g0
(g305
g2
Ntp2344
Rp2345
(dp2346
g21
I00
sg109
I01
sg23
I00
sg110
I125
sbsg2251
g0
(g305
g2
Ntp2347
Rp2348
(dp2349
g21
I00
sg109
I01
sg23
I00
sg110
I105
sbsg2252
g0
(g105
g2
Ntp2350
Rp2351
(dp2352
g21
I00
sg109
I01
sg23
I00
sg110
F0.3305
sbsg2253
g0
(g144
g145
(lp2353
F0.0
atp2354
Rp2355
(dp2356
g21
I00
sg109
I01
sg23
I00
sbsg2254
g0
(g144
g145
(lp2357
F0.0
atp2358
Rp2359
(dp2360
g21
I00
sg109
I01
sg23
I00
sbsg2255
g0
(g105
g2
Ntp2361
Rp2362
(dp2363
g21
I00
sg109
I01
sg23
I00
sg110
F0.0
sbsg2256
g0
(g105
g2
Ntp2364
Rp2365
(dp2366
g21
I00
sg109
I01
sg23
I00
sg110
F0.1
sbsg2257
g0
(g184
g2
Ntp2367
Rp2368
(dp2369
g21
I00
sg109
I01
sg23
I00
sg110
I00
sbsbsg2147
g0
(g1015
g2
Ntp2370
Rp2371
(dp2372
g21
I00
sg109
I01
sg23
I00
sg19
(lp2373
g2242
ag2243
ag2244
ag2245
ag2246
ag2247
ag2248
ag2249
ag2250
ag2251
ag2252
ag2253
ag2254
ag2255
ag2256
ag2257
asg22
Nsg2242
g0
(g105
g2
Ntp2374
Rp2375
(dp2376
g21
I00
sg109
I01
sg23
I00
sg110
F9.354
sbsg2243
g0
(g105
g2
Ntp2377
Rp2378
(dp2379
g21
I00
sg109
I01
sg23
I00
sg110
F2.516
sbsg2244
g0
(g144
g145
(lp2380
F0.14
aF0.135
atp2381
Rp2382
(dp2383
g21
I00
sg109
I01
sg23
I00
sbsg2245
g0
(g144
g145
(lp2384
F0.0
aF0.0
atp2385
Rp2386
(dp2387
g21
I00
sg109
I01
sg23
I00
sbsg2246
g0
(g305
g2
Ntp2388
Rp2389
(dp2390
g21
I00
sg109
I01
sg23
I00
sg110
I-9999
sbsg2247
g0
(g305
g2
Ntp2391
Rp2392
(dp2393
g21
I00
sg109
I01
sg23
I00
sg110
I0
sbsg2248
g0
(g144
g145
(lp2394
F-0.87
aF1.4
aF7.8
aF-29.6
atp2395
Rp2396
(dp2397
g21
I00
sg109
I01
sg23
I00
sbsg2249
g0
(g144
g145
(lp2398
F0.359
aF0.358
aF0.36
aF0.367
atp2399
Rp2400
(dp2401
g21
I00
sg109
I01
sg23
I00
sbsg2250
g0
(g305
g2
Ntp2402
Rp2403
(dp2404
g21
I00
sg109
I01
sg23
I00
sg110
I301
sbsg2251
g0
(g305
g2
Ntp2405
Rp2406
(dp2407
g21
I00
sg109
I01
sg23
I00
sg110
I301
sbsg2252
g0
(g105
g2
Ntp2408
Rp2409
(dp2410
g21
I00
sg109
I01
sg23
I00
sg110
F0.0
sbsg2253
g0
(g144
g145
(lp2411
F0.0
atp2412
Rp2413
(dp2414
g21
I00
sg109
I01
sg23
I00
sbsg2254
g0
(g144
g145
(lp2415
F0.0
atp2416
Rp2417
(dp2418
g21
I00
sg109
I01
sg23
I00
sbsg2255
g0
(g105
g2
Ntp2419
Rp2420
(dp2421
g21
I00
sg109
I01
sg23
I00
sg110
F0.0
sbsg2256
g0
(g105
g2
Ntp2422
Rp2423
(dp2424
g21
I00
sg109
I01
sg23
I00
sg110
F0.1
sbsg2257
g0
(g184
g2
Ntp2425
Rp2426
(dp2427
g21
I00
sg109
I01
sg23
I00
sg110
I00
sbsbsg2148
g0
(g1015
g2
Ntp2428
Rp2429
(dp2430
g21
I00
sg109
I01
sg23
I00
sg19
(lp2431
g2242
ag2243
ag2244
ag2245
ag2246
ag2247
ag2248
ag2249
ag2250
ag2251
ag2252
ag2253
ag2254
ag2255
ag2256
ag2257
asg22
Nsg2242
g0
(g105
g2
Ntp2432
Rp2433
(dp2434
g21
I00
sg109
I01
sg23
I00
sg110
F12.06
sbsg2243
g0
(g105
g2
Ntp2435
Rp2436
(dp2437
g21
I00
sg109
I01
sg23
I00
sg110
F0.6285
sbsg2244
g0
(g144
g145
(lp2438
F0.006
aF0.0087
atp2439
Rp2440
(dp2441
g21
I00
sg109
I01
sg23
I00
sbsg2245
g0
(g144
g145
(lp2442
F0.0
aF0.0
atp2443
Rp2444
(dp2445
g21
I00
sg109
I01
sg23
I00
sbsg2246
g0
(g305
g2
Ntp2446
Rp2447
(dp2448
g21
I00
sg109
I01
sg23
I00
sg110
I24
sbsg2247
g0
(g305
g2
Ntp2449
Rp2450
(dp2451
g21
I00
sg109
I01
sg23
I00
sg110
I0
sbsg2248
g0
(g144
g145
(lp2452
F-0.44
aF1.4
aF7.1
aF38.5
atp2453
Rp2454
(dp2455
g21
I00
sg109
I01
sg23
I00
sbsg2249
g0
(g144
g145
(lp2456
F0.907
aF0.915
aF0.92
aF0.921
atp2457
Rp2458
(dp2459
g21
I00
sg109
I01
sg23
I00
sbsg2250
g0
(g305
g2
Ntp2460
Rp2461
(dp2462
g21
I00
sg109
I01
sg23
I00
sg110
I201
sbsg2251
g0
(g305
g2
Ntp2463
Rp2464
(dp2465
g21
I00
sg109
I01
sg23
I00
sg110
I201
sbsg2252
g0
(g105
g2
Ntp2466
Rp2467
(dp2468
g21
I00
sg109
I01
sg23
I00
sg110
F4.0
sbsg2253
g0
(g144
g145
(lp2469
F0.0
atp2470
Rp2471
(dp2472
g21
I00
sg109
I01
sg23
I00
sbsg2254
g0
(g144
g145
(lp2473
F0.0
atp2474
Rp2475
(dp2476
g21
I00
sg109
I01
sg23
I00
sbsg2255
g0
(g105
g2
Ntp2477
Rp2478
(dp2479
g21
I00
sg109
I01
sg23
I00
sg110
F0.0
sbsg2256
g0
(g105
g2
Ntp2480
Rp2481
(dp2482
g21
I00
sg109
I01
sg23
I00
sg110
F0.1
sbsg2257
g0
(g184
g2
Ntp2483
Rp2484
(dp2485
g21
I00
sg109
I01
sg23
I00
sg110
I00
sbsbsg2149
g0
(g1015
g2
Ntp2486
Rp2487
(dp2488
g21
I00
sg109
I01
sg23
I00
sg19
(lp2489
g2242
ag2243
ag2244
ag2245
ag2246
ag2247
ag2248
ag2249
ag2250
ag2251
ag2252
ag2253
ag2254
ag2255
ag2256
ag2257
aVradiationDamage
p2490
asg22
Nsg2242
g0
(g105
g2
Ntp2491
Rp2492
(dp2493
g21
I00
sg109
I01
sg23
I00
sg110
F17.3
sbsg2243
g0
(g105
g2
Ntp2494
Rp2495
(dp2496
g21
I00
sg109
I01
sg23
I00
sg110
F1.5
sbsg2244
g0
(g144
g145
(lp2497
F0.0006252
atp2498
Rp2499
(dp2500
g21
I00
sg109
I01
sg23
I00
sbsg2245
g0
(g144
g145
(lp2501
I0
atp2502
Rp2503
(dp2504
g21
I00
sg109
I01
sg23
I00
sbsg2246
g0
(g305
g2
Ntp2505
Rp2506
(dp2507
g21
I00
sg109
I01
sg23
I00
sg110
I16
sbsg2247
g0
(g305
g2
Ntp2508
Rp2509
(dp2510
g21
I00
sg109
I01
sg23
I00
sg110
I2
sbsg2248
g0
(g144
g145
(lp2511
F0.0
aF0.0
aF0.0
aF0.0
atp2512
Rp2513
(dp2514
g21
I00
sg109
I01
sg23
I00
sbsg2249
g0
(g144
g145
(lp2515
F0.05376
aF0.05376
aF0.05376
aF0.05376
atp2516
Rp2517
(dp2518
g21
I00
sg109
I01
sg23
I00
sbsg2250
g0
(g305
g2
Ntp2519
Rp2520
(dp2521
g21
I00
sg109
I01
sg23
I00
sg110
I206
sbsg2251
g0
(g305
g2
Ntp2522
Rp2523
(dp2524
g21
I00
sg109
I01
sg23
I00
sg110
I208
sbsg2252
g0
(g105
g2
Ntp2525
Rp2526
(dp2527
g21
I00
sg109
I01
sg23
I00
sg110
F40.0
sbsg2253
g0
(g144
g145
(lp2528
F0.01
aF0.015
atp2529
Rp2530
(dp2531
g21
I00
sg109
I01
sg23
I00
sbsg2254
g0
(g144
g145
(lp2532
F0.26
aF0.254
atp2533
Rp2534
(dp2535
g21
I00
sg109
I01
sg23
I00
sbsg2255
g0
(g105
g2
Ntp2536
Rp2537
(dp2538
g21
I00
sg109
I01
sg23
I00
sg110
F0.0
sbsg2256
g0
(g105
g2
Ntp2539
Rp2540
(dp2541
g21
I00
sg109
I01
sg23
I00
sg110
F0.1
sbsg2257
g0
(g184
g2
Ntp2542
Rp2543
(dp2544
g21
I00
sg109
I01
sg23
I00
sg110
I01
sbsg2490
g0
(g1015
g2
Ntp2545
Rp2546
(dp2547
g21
I00
sg109
I01
sg23
I00
sg19
(lp2548
VtemperatureBase
p2549
aVtemperatureNew
p2550
aVintlumiOffset
p2551
aVdepVsTemp
p2552
aVintlumiToNeutrons
p2553
aVdepVsNeutrons
p2554
asg22
Nsg2549
g0
(g105
g2
Ntp2555
Rp2556
(dp2557
g21
I00
sg109
I01
sg23
I00
sg110
I20
sbsg2550
g0
(g105
g2
Ntp2558
Rp2559
(dp2560
g21
I00
sg109
I01
sg23
I00
sg110
I-5
sbsg2551
g0
(g105
g2
Ntp2561
Rp2562
(dp2563
g21
I00
sg109
I01
sg23
I00
sg110
I150
sbsg2552
g0
(g105
g2
Ntp2564
Rp2565
(dp2566
g21
I00
sg109
I01
sg23
I00
sg110
F0.0631
sbsg2553
g0
(g105
g2
Ntp2567
Rp2568
(dp2569
g21
I00
sg109
I01
sg23
I00
sg110
F367000000.0
sbsg2554
g0
(g144
g145
(lp2570
F5.543e-10
aF8.012e-10
atp2571
Rp2572
(dp2573
g21
I00
sg109
I01
sg23
I00
sbsbsbsg2150
g0
(g1015
g2
Ntp2574
Rp2575
(dp2576
g21
I00
sg109
I01
sg23
I00
sg19
(lp2577
g2242
ag2243
ag2244
ag2245
ag2246
ag2247
ag2248
ag2249
ag2250
ag2251
ag2252
ag2253
ag2254
ag2255
ag2256
ag2257
ag2490
asg22
Nsg2242
g0
(g105
g2
Ntp2578
Rp2579
(dp2580
g21
I00
sg109
I01
sg23
I00
sg110
F17.3
sbsg2243
g0
(g105
g2
Ntp2581
Rp2582
(dp2583
g21
I00
sg109
I01
sg23
I00
sg110
F1.5
sbsg2244
g0
(g144
g145
(lp2584
F0.0006252
atp2585
Rp2586
(dp2587
g21
I00
sg109
I01
sg23
I00
sbsg2245
g0
(g144
g145
(lp2588
I0
atp2589
Rp2590
(dp2591
g21
I00
sg109
I01
sg23
I00
sbsg2246
g0
(g305
g2
Ntp2592
Rp2593
(dp2594
g21
I00
sg109
I01
sg23
I00
sg110
I16
sbsg2247
g0
(g305
g2
Ntp2595
Rp2596
(dp2597
g21
I00
sg109
I01
sg23
I00
sg110
I2
sbsg2248
g0
(g144
g145
(lp2598
F0.0
aF0.0
aF0.0
aF0.0
atp2599
Rp2600
(dp2601
g21
I00
sg109
I01
sg23
I00
sbsg2249
g0
(g144
g145
(lp2602
F0.05376
aF0.05376
aF0.05376
aF0.05376
atp2603
Rp2604
(dp2605
g21
I00
sg109
I01
sg23
I00
sbsg2250
g0
(g305
g2
Ntp2606
Rp2607
(dp2608
g21
I00
sg109
I01
sg23
I00
sg110
I206
sbsg2251
g0
(g305
g2
Ntp2609
Rp2610
(dp2611
g21
I00
sg109
I01
sg23
I00
sg110
I208
sbsg2252
g0
(g105
g2
Ntp2612
Rp2613
(dp2614
g21
I00
sg109
I01
sg23
I00
sg110
F40.0
sbsg2253
g0
(g144
g145
(lp2615
F0.01
aF0.015
atp2616
Rp2617
(dp2618
g21
I00
sg109
I01
sg23
I00
sbsg2254
g0
(g144
g145
(lp2619
F0.26
aF0.254
atp2620
Rp2621
(dp2622
g21
I00
sg109
I01
sg23
I00
sbsg2255
g0
(g105
g2
Ntp2623
Rp2624
(dp2625
g21
I00
sg109
I01
sg23
I00
sg110
F0.0
sbsg2256
g0
(g105
g2
Ntp2626
Rp2627
(dp2628
g21
I00
sg109
I01
sg23
I00
sg110
F0.1
sbsg2257
g0
(g184
g2
Ntp2629
Rp2630
(dp2631
g21
I00
sg109
I01
sg23
I00
sg110
I01
sbsg2490
g0
(g1015
g2
Ntp2632
Rp2633
(dp2634
g21
I00
sg109
I01
sg23
I00
sg19
(lp2635
g2549
ag2550
ag2551
ag2552
ag2553
ag2554
asg22
Nsg2549
g0
(g105
g2
Ntp2636
Rp2637
(dp2638
g21
I00
sg109
I01
sg23
I00
sg110
I20
sbsg2550
g0
(g105
g2
Ntp2639
Rp2640
(dp2641
g21
I00
sg109
I01
sg23
I00
sg110
I5
sbsg2551
g0
(g105
g2
Ntp2642
Rp2643
(dp2644
g21
I00
sg109
I01
sg23
I00
sg110
I75
sbsg2552
g0
(g105
g2
Ntp2645
Rp2646
(dp2647
g21
I00
sg109
I01
sg23
I00
sg110
F0.0631
sbsg2553
g0
(g105
g2
Ntp2648
Rp2649
(dp2650
g21
I00
sg109
I01
sg23
I00
sg110
F29200000.0
sbsg2554
g0
(g144
g145
(lp2651
F5.543e-10
aF8.012e-10
atp2652
Rp2653
(dp2654
g21
I00
sg109
I01
sg23
I00
sbsbsbsg2151
g0
(g1015
g2
Ntp2655
Rp2656
(dp2657
g21
I00
sg109
I01
sg23
I00
sg19
(lp2658
g2242
ag2243
ag2244
ag2245
ag2246
ag2247
ag2248
ag2249
ag2250
ag2251
ag2252
ag2253
ag2254
ag2255
ag2256
ag2257
asg22
Nsg2242
g0
(g105
g2
Ntp2659
Rp2660
(dp2661
g21
I00
sg109
I01
sg23
I00
sg110
F13.33
sbsg2243
g0
(g105
g2
Ntp2662
Rp2663
(dp2664
g21
I00
sg109
I01
sg23
I00
sg110
F3.33
sbsg2244
g0
(g144
g145
(lp2665
F0.14
aF0.135
atp2666
Rp2667
(dp2668
g21
I00
sg109
I01
sg23
I00
sbsg2245
g0
(g144
g145
(lp2669
F0.0
aF0.0
atp2670
Rp2671
(dp2672
g21
I00
sg109
I01
sg23
I00
sbsg2246
g0
(g305
g2
Ntp2673
Rp2674
(dp2675
g21
I00
sg109
I01
sg23
I00
sg110
I-9999
sbsg2247
g0
(g305
g2
Ntp2676
Rp2677
(dp2678
g21
I00
sg109
I01
sg23
I00
sg110
I1
sbsg2248
g0
(g144
g145
(lp2679
F0.0697
aF-0.7405
aF12.38
aF-671.9
atp2680
Rp2681
(dp2682
g21
I00
sg109
I01
sg23
I00
sbsg2249
g0
(g144
g145
(lp2683
F0.297
aF0.298
aF0.298
aF0.313
atp2684
Rp2685
(dp2686
g21
I00
sg109
I01
sg23
I00
sbsg2250
g0
(g305
g2
Ntp2687
Rp2688
(dp2689
g21
I00
sg109
I01
sg23
I00
sg110
I301
sbsg2251
g0
(g305
g2
Ntp2690
Rp2691
(dp2692
g21
I00
sg109
I01
sg23
I00
sg110
I301
sbsg2252
g0
(g105
g2
Ntp2693
Rp2694
(dp2695
g21
I00
sg109
I01
sg23
I00
sg110
F0.0
sbsg2253
g0
(g144
g145
(lp2696
F0.0
atp2697
Rp2698
(dp2699
g21
I00
sg109
I01
sg23
I00
sbsg2254
g0
(g144
g145
(lp2700
F0.0
atp2701
Rp2702
(dp2703
g21
I00
sg109
I01
sg23
I00
sbsg2255
g0
(g105
g2
Ntp2704
Rp2705
(dp2706
g21
I00
sg109
I01
sg23
I00
sg110
F0.0
sbsg2256
g0
(g105
g2
Ntp2707
Rp2708
(dp2709
g21
I00
sg109
I01
sg23
I00
sg110
F0.1
sbsg2257
g0
(g184
g2
Ntp2710
Rp2711
(dp2712
g21
I00
sg109
I01
sg23
I00
sg110
I00
sbsbsg2152
g0
(g1923
g145
(lp2713
g0
(g1015
g2
Ntp2714
Rp2715
(dp2716
g21
I00
sg109
I01
sg23
I00
sg19
(lp2717
Vpixels
p2718
aVcrosstalk
p2719
aVnonlin1
p2720
aVnonlin2
p2721
aVnonlin3
p2722
asg22
Nsg2718
g0
(g305
g2
Ntp2723
Rp2724
(dp2725
g21
I00
sg109
I01
sg23
I00
sg110
I36000
sbsg2719
g0
(g105
g2
Ntp2726
Rp2727
(dp2728
g21
I00
sg109
I01
sg23
I00
sg110
F0.0
sbsg2720
g0
(g105
g2
Ntp2729
Rp2730
(dp2731
g21
I00
sg109
I01
sg23
I00
sg110
F1.0
sbsg2721
g0
(g105
g2
Ntp2732
Rp2733
(dp2734
g21
I00
sg109
I01
sg23
I00
sg110
F0.0
sbsg2722
g0
(g105
g2
Ntp2735
Rp2736
(dp2737
g21
I00
sg109
I01
sg23
I00
sg110
F0.0
sbsbag0
(g1015
g2
Ntp2738
Rp2739
(dp2740
g21
I00
sg109
I01
sg23
I00
sg19
(lp2741
g2718
ag2719
ag2720
ag2721
ag2722
asg22
Nsg2718
g0
(g305
g2
Ntp2742
Rp2743
(dp2744
g21
I00
sg109
I01
sg23
I00
sg110
I2500
sbsg2719
g0
(g105
g2
Ntp2745
Rp2746
(dp2747
g21
I00
sg109
I01
sg23
I00
sg110
F0.0
sbsg2720
g0
(g105
g2
Ntp2748
Rp2749
(dp2750
g21
I00
sg109
I01
sg23
I00
sg110
F1.0
sbsg2721
g0
(g105
g2
Ntp2751
Rp2752
(dp2753
g21
I00
sg109
I01
sg23
I00
sg110
F0.0
sbsg2722
g0
(g105
g2
Ntp2754
Rp2755
(dp2756
g21
I00
sg109
I01
sg23
I00
sg110
F0.0
sbsbag0
(g1015
g2
Ntp2757
Rp2758
(dp2759
g21
I00
sg109
I01
sg23
I00
sg19
(lp2760
g2718
ag2719
ag2720
ag2721
ag2722
asg22
Nsg2718
g0
(g305
g2
Ntp2761
Rp2762
(dp2763
g21
I00
sg109
I01
sg23
I00
sg110
I27370
sbsg2719
g0
(g105
g2
Ntp2764
Rp2765
(dp2766
g21
I00
sg109
I01
sg23
I00
sg110
F0.17
sbsg2720
g0
(g105
g2
Ntp2767
Rp2768
(dp2769
g21
I00
sg109
I01
sg23
I00
sg110
F1.00985
sbsg2721
g0
(g105
g2
Ntp2770
Rp2771
(dp2772
g21
I00
sg109
I01
sg23
I00
sg110
F7.84089e-06
sbsg2722
g0
(g105
g2
Ntp2773
Rp2774
(dp2775
g21
I00
sg109
I01
sg23
I00
sg110
F2.86282e-10
sbsbag0
(g1015
g2
Ntp2776
Rp2777
(dp2778
g21
I00
sg109
I01
sg23
I00
sg19
(lp2779
g2718
ag2719
ag2720
ag2721
ag2722
asg22
Nsg2718
g0
(g305
g2
Ntp2780
Rp2781
(dp2782
g21
I00
sg109
I01
sg23
I00
sg110
I38018
sbsg2719
g0
(g105
g2
Ntp2783
Rp2784
(dp2785
g21
I00
sg109
I01
sg23
I00
sg110
F0.196
sbsg2720
g0
(g105
g2
Ntp2786
Rp2787
(dp2788
g21
I00
sg109
I01
sg23
I00
sg110
F1.00546
sbsg2721
g0
(g105
g2
Ntp2789
Rp2790
(dp2791
g21
I00
sg109
I01
sg23
I00
sg110
F6.40239e-06
sbsg2722
g0
(g105
g2
Ntp2792
Rp2793
(dp2794
g21
I00
sg109
I01
sg23
I00
sg110
F1.27011e-10
sbsbag0
(g1015
g2
Ntp2795
Rp2796
(dp2797
g21
I00
sg109
I01
sg23
I00
sg19
(lp2798
g2718
ag2719
ag2720
ag2721
ag2722
asg22
Nsg2718
g0
(g305
g2
Ntp2799
Rp2800
(dp2801
g21
I00
sg109
I01
sg23
I00
sg110
I27370
sbsg2719
g0
(g105
g2
Ntp2802
Rp2803
(dp2804
g21
I00
sg109
I01
sg23
I00
sg110
F0.17
sbsg2720
g0
(g105
g2
Ntp2805
Rp2806
(dp2807
g21
I00
sg109
I01
sg23
I00
sg110
F1.00985
sbsg2721
g0
(g105
g2
Ntp2808
Rp2809
(dp2810
g21
I00
sg109
I01
sg23
I00
sg110
F7.84089e-06
sbsg2722
g0
(g105
g2
Ntp2811
Rp2812
(dp2813
g21
I00
sg109
I01
sg23
I00
sg110
F2.86282e-10
sbsbag0
(g1015
g2
Ntp2814
Rp2815
(dp2816
g21
I00
sg109
I01
sg23
I00
sg19
(lp2817
g2718
ag2719
ag2720
ag2721
ag2722
asg22
Nsg2718
g0
(g305
g2
Ntp2818
Rp2819
(dp2820
g21
I00
sg109
I01
sg23
I00
sg110
I38018
sbsg2719
g0
(g105
g2
Ntp2821
Rp2822
(dp2823
g21
I00
sg109
I01
sg23
I00
sg110
F0.196
sbsg2720
g0
(g105
g2
Ntp2824
Rp2825
(dp2826
g21
I00
sg109
I01
sg23
I00
sg110
F1.00546
sbsg2721
g0
(g105
g2
Ntp2827
Rp2828
(dp2829
g21
I00
sg109
I01
sg23
I00
sg110
F6.40239e-06
sbsg2722
g0
(g105
g2
Ntp2830
Rp2831
(dp2832
g21
I00
sg109
I01
sg23
I00
sg110
F1.27011e-10
sbsbag0
(g1015
g2
Ntp2833
Rp2834
(dp2835
g21
I00
sg109
I01
sg23
I00
sg19
(lp2836
g2718
ag2719
ag2720
ag2721
ag2722
asg22
Nsg2718
g0
(g305
g2
Ntp2837
Rp2838
(dp2839
g21
I00
sg109
I01
sg23
I00
sg110
I0
sbsg2719
g0
(g105
g2
Ntp2840
Rp2841
(dp2842
g21
I00
sg109
I01
sg23
I00
sg110
F0.0
sbsg2720
g0
(g105
g2
Ntp2843
Rp2844
(dp2845
g21
I00
sg109
I01
sg23
I00
sg110
F1.0
sbsg2721
g0
(g105
g2
Ntp2846
Rp2847
(dp2848
g21
I00
sg109
I01
sg23
I00
sg110
F0.0
sbsg2722
g0
(g105
g2
Ntp2849
Rp2850
(dp2851
g21
I00
sg109
I01
sg23
I00
sg110
F0.0
sbsbatp2852
Rp2853
(dp2854
g21
I00
sg109
I01
sg23
I00
sg333
I1
sbsg24
V/cvmfs/cms-ib.cern.ch/sw/x86_64/week0/el8_amd64_gcc12/cms/cmssw/CMSSW_14_1_X_2024-06-16-0000/src/CalibCalorimetry/HcalPlugins/python/Hcal_Conditions_forGlobalTag_cff.py
p2855
sg26
I16
sg27
g2120
sbssV_Process__esproducers
p2856
(dp2857
VCSCGeometryESModule
p2858
g0
(cFWCore.ParameterSet.Modules
ESProducer
p2859
g2
Ntp2860
Rp2861
(dp2862
g17
g2858
sg19
(lp2863
VfromDDD
p2864
aVfromDD4hep
p2865
aValignmentsLabel
p2866
ag1955
aVuseRealWireGeometry
p2867
aVuseOnlyWiresInME1a
p2868
aVuseGangedStripsInME1a
p2869
aVuseCentreTIOffsets
p2870
aVapplyAlignment
p2871
aVdebugV
p2872
asg21
I00
sg22
Nsg2864
g0
(g184
g2
Ntp2873
Rp2874
(dp2875
g21
I00
sg109
I01
sg23
I00
sg110
I00
sbsg23
I01
sg2865
g0
(g184
g2
Ntp2876
Rp2877
(dp2878
g21
I00
sg109
I01
sg23
I00
sg110
I00
sbsg2866
g0
(g715
g2
Ntp2879
Rp2880
(dp2881
g21
I00
sg109
I01
sg23
I00
sg110
g124
sbsg1955
g0
(g715
g2
Ntp2882
Rp2883
(dp2884
g21
I00
sg109
I01
sg23
I00
sg110
g124
sbsg2867
g0
(g184
g2
Ntp2885
Rp2886
(dp2887
g21
I00
sg109
I01
sg23
I00
sg110
I01
sbsg2868
g0
(g184
g2
Ntp2888
Rp2889
(dp2890
g21
I00
sg109
I01
sg23
I00
sg110
I00
sbsg2869
g0
(g184
g2
Ntp2891
Rp2892
(dp2893
g21
I00
sg109
I01
sg23
I01
sg110
I00
sbsg2870
g0
(g184
g2
Ntp2894
Rp2895
(dp2896
g21
I00
sg109
I01
sg23
I00
sg110
I00
sbsg2871
g0
(g184
g2
Ntp2897
Rp2898
(dp2899
g21
I00
sg109
I01
sg23
I00
sg110
I01
sbsg2872
g0
(g184
g2
Ntp2900
Rp2901
(dp2902
g21
I00
sg109
I00
sg23
I00
sg110
I00
sbsg24
g629
sg26
I55
sg27
g2858
sbsVCaloGeometryBuilder
p2903
g0
(g2859
g2
Ntp2904
Rp2905
(dp2906
g17
g2903
sg19
(lp2907
VSelectedCalos
p2908
asg21
I00
sg22
Nsg2908
g0
(g325
g145
(lp2909
VHCAL
p2910
aVZDC
p2911
aVEcalBarrel
p2912
aVEcalEndcap
p2913
aVEcalPreshower
p2914
aVTOWER
p2915
atp2916
Rp2917
(dp2918
g21
I00
sg109
I01
sg23
I01
sg333
I1
sbsg23
I01
sg24
g629
sg26
I55
sg27
g2903
sbsVCaloTopologyBuilder
p2919
g0
(g2859
g2
Ntp2920
Rp2921
(dp2922
g17
g2919
sg19
(lp2923
sg21
I00
sg22
Nsg23
I00
sg24
g629
sg26
I55
sg27
g2919
sbsVCaloTowerGeometryFromDBEP
p2924
g0
(g2859
g2
Ntp2925
Rp2926
(dp2927
g17
g2924
sg19
(lp2928
g2871
asg21
I00
sg22
Nsg2871
g0
(g184
g2
Ntp2929
Rp2930
(dp2931
g21
I00
sg109
I01
sg23
I00
sg110
I00
sbsg23
I00
sg24
g629
sg26
I55
sg27
g2924
sbsVCaloTowerTopologyEP
p2932
g0
(g2859
g2
Ntp2933
Rp2934
(dp2935
g17
g2932
sg19
(lp2936
g1955
asg21
I00
sg22
Nsg1955
g0
(g715
g2
Ntp2937
Rp2938
(dp2939
g21
I00
sg109
I01
sg23
I00
sg110
g124
sbsg23
I00
sg24
g629
sg26
I55
sg27
g2932
sbsVCastorGeometryFromDBEP
p2940
g0
(g2859
g2
Ntp2941
Rp2942
(dp2943
g17
g2940
sg19
(lp2944
g2871
asg21
I00
sg22
Nsg2871
g0
(g184
g2
Ntp2945
Rp2946
(dp2947
g21
I00
sg109
I01
sg23
I00
sg110
I00
sbsg23
I00
sg24
g629
sg26
I55
sg27
g2940
sbsVDTGeometryESModule
p2948
g0
(g2859
g2
Ntp2949
Rp2950
(dp2951
g17
g2948
sg19
(lp2952
g2864
ag2865
aVDDDetector
p2953
ag2866
ag1955
aVattribute
p2954
aVvalue
p2955
ag2871
asg21
I00
sg22
Nsg2864
g0
(g184
g2
Ntp2956
Rp2957
(dp2958
g21
I00
sg109
I01
sg23
I01
sg110
I00
sbsg23
I01
sg2865
g0
(g184
g2
Ntp2959
Rp2960
(dp2961
g21
I00
sg109
I01
sg23
I00
sg110
I00
sbsg2953
g0
(cFWCore.ParameterSet.Types
ESInputTag
p2962
g2
Ntp2963
Rp2964
(dp2965
g21
I00
sg109
I01
sg23
I00
sV_ESInputTag__moduleLabel
p2966
g124
sV_ESInputTag__data
p2967
g124
sbsg2866
g0
(g715
g2
Ntp2968
Rp2969
(dp2970
g21
I00
sg109
I01
sg23
I00
sg110
g124
sbsg1955
g0
(g715
g2
Ntp2971
Rp2972
(dp2973
g21
I00
sg109
I01
sg23
I00
sg110
g124
sbsg2954
g0
(g715
g2
Ntp2974
Rp2975
(dp2976
g21
I00
sg109
I01
sg23
I00
sg110
VMuStructure
p2977
sbsg2955
g0
(g715
g2
Ntp2978
Rp2979
(dp2980
g21
I00
sg109
I01
sg23
I00
sg110
VMuonBarrelDT
p2981
sbsg2871
g0
(g184
g2
Ntp2982
Rp2983
(dp2984
g21
I00
sg109
I01
sg23
I00
sg110
I01
sbsg24
g629
sg26
I55
sg27
g2948
sbsVEcalBarrelGeometryFromDBEP
p2985
g0
(g2859
g2
Ntp2986
Rp2987
(dp2988
g17
g2985
sg19
(lp2989
g2871
asg21
I00
sg22
Nsg2871
g0
(g184
g2
Ntp2990
Rp2991
(dp2992
g21
I00
sg109
I01
sg23
I01
sg110
I01
sbsg23
I01
sg24
g629
sg26
I55
sg27
g2985
sbsVEcalElectronicsMappingBuilder
p2993
g0
(g2859
g2
Ntp2994
Rp2995
(dp2996
g17
g2993
sg19
(lp2997
sg21
I00
sg22
Nsg23
I00
sg24
g629
sg26
I55
sg27
g2993
sbsVEcalEndcapGeometryFromDBEP
p2998
g0
(g2859
g2
Ntp2999
Rp3000
(dp3001
g17
g2998
sg19
(lp3002
g2871
asg21
I00
sg22
Nsg2871
g0
(g184
g2
Ntp3003
Rp3004
(dp3005
g21
I00
sg109
I01
sg23
I01
sg110
I01
sbsg23
I01
sg24
g629
sg26
I55
sg27
g2998
sbsVEcalPreshowerGeometryFromDBEP
p3006
g0
(g2859
g2
Ntp3007
Rp3008
(dp3009
g17
g3006
sg19
(lp3010
g2871
asg21
I00
sg22
Nsg2871
g0
(g184
g2
Ntp3011
Rp3012
(dp3013
g21
I00
sg109
I01
sg23
I01
sg110
I01
sbsg23
I01
sg24
g629
sg26
I55
sg27
g3006
sbsVEcalTrigTowerConstituentsMapBuilder
p3014
g0
(g2859
g2
Ntp3015
Rp3016
(dp3017
g17
g3014
sg19
(lp3018
VMapFile
p3019
asg21
I00
sg22
Nsg3019
g0
(g715
g2
Ntp3020
Rp3021
(dp3022
g21
I00
sg109
I00
sg23
I00
sg110
VGeometry/EcalMapping/data/EndCap_TTMap.txt
p3023
sbsg23
I00
sg24
g629
sg26
I55
sg27
g3014
sbsVGlobalTrackingGeometryESProducer
p3024
g0
(g2859
g2
Ntp3025
Rp3026
(dp3027
g17
g3024
sg19
(lp3028
sg21
I00
sg22
Nsg23
I00
sg24
g629
sg26
I55
sg27
g3024
sbsVHcalAlignmentEP
p3029
g0
(g2859
g2
Ntp3030
Rp3031
(dp3032
g17
g3029
sg19
(lp3033
sg21
I00
sg22
Nsg23
I00
sg24
g629
sg26
I55
sg27
g3029
sbsVHcalGeometryFromDBEP
p3034
g0
(g2859
g2
Ntp3035
Rp3036
(dp3037
g17
g3034
sg19
(lp3038
g2871
asg21
I00
sg22
Nsg2871
g0
(g184
g2
Ntp3039
Rp3040
(dp3041
g21
I00
sg109
I01
sg23
I01
sg110
I01
sbsg23
I01
sg24
g629
sg26
I55
sg27
g3034
sbsVMuonDetLayerGeometryESProducer
p3042
g0
(g2859
g2
Ntp3043
Rp3044
(dp3045
g17
g3042
sg19
(lp3046
sg21
I00
sg22
Nsg23
I00
sg24
g629
sg26
I55
sg27
g3042
sbsVRPCGeometryESModule
p3047
g0
(g2859
g2
Ntp3048
Rp3049
(dp3050
g17
g3047
sg19
(lp3051
g2864
ag2865
asg21
I00
sg22
Nsg2864
g0
(g184
g2
Ntp3052
Rp3053
(dp3054
g21
I00
sg109
I00
sg23
I00
sg110
I00
sbsg23
I00
sg2865
g0
(g184
g2
Ntp3055
Rp3056
(dp3057
g21
I00
sg109
I00
sg23
I00
sg110
I00
sbsg24
g629
sg26
I55
sg27
g3047
sbsVTrackerAdditionalParametersPerDet
p3058
g0
(g2859
g2
Ntp3059
Rp3060
(dp3061
g17
VTrackerAdditionalParametersPerDetESModule
p3062
sg19
(lp3063
g1955
asg21
I00
sg22
Nsg1955
g0
(g715
g2
Ntp3064
Rp3065
(dp3066
g21
I00
sg109
I01
sg23
I00
sg110
g124
sbsg23
I00
sg24
g629
sg26
I55
sg27
g3058
sbsVTrackerRecoGeometryESProducer
p3067
g0
(g2859
g2
Ntp3068
Rp3069
(dp3070
g17
g3067
sg19
(lp3071
VusePhase2Stacks
p3072
asg21
I00
sg22
Nsg3072
g0
(g184
g2
Ntp3073
Rp3074
(dp3075
g21
I00
sg109
I01
sg23
I00
sg110
I00
sbsg23
I00
sg24
g629
sg26
I55
sg27
g3067
sbsVZdcGeometryFromDBEP
p3076
g0
(g2859
g2
Ntp3077
Rp3078
(dp3079
g17
g3076
sg19
(lp3080
g2871
asg21
I00
sg22
Nsg2871
g0
(g184
g2
Ntp3081
Rp3082
(dp3083
g21
I00
sg109
I01
sg23
I00
sg110
I00
sbsg23
I00
sg24
g629
sg26
I55
sg27
g3076
sbsVfakeForIdealAlignment
p3084
g0
(g2859
g2
Ntp3085
Rp3086
(dp3087
g17
VFakeAlignmentProducer
p3088
sg19
(lp3089
g1955
asg21
I00
sg22
Nsg1955
g0
(g715
g2
Ntp3090
Rp3091
(dp3092
g21
I00
sg109
I01
sg23
I01
sg110
VfakeForIdeal
p3093
sbsg23
I01
sg24
V/cvmfs/cms-ib.cern.ch/sw/x86_64/week0/el8_amd64_gcc12/cms/cmssw/CMSSW_14_1_X_2024-06-16-0000/src/Alignment/CommonAlignmentProducer/python/fakeForIdealAlignmentProducer_cfi.py
p3094
sg26
I5
sg27
g3084
sbsVhcalDDDRecConstants
p3095
g0
(g2859
g2
Ntp3096
Rp3097
(dp3098
g17
VHcalDDDRecConstantsESModule
p3099
sg19
(lp3100
g1955
asg21
I00
sg22
Nsg1955
g0
(g715
g2
Ntp3101
Rp3102
(dp3103
g21
I00
sg109
I01
sg23
I00
sg110
g124
sbsg23
I00
sg24
g629
sg26
I55
sg27
g3095
sbsVhcalDDDSimConstants
p3104
g0
(g2859
g2
Ntp3105
Rp3106
(dp3107
g17
VHcalDDDSimConstantsESModule
p3108
sg19
(lp3109
g1955
asg21
I00
sg22
Nsg1955
g0
(g715
g2
Ntp3110
Rp3111
(dp3112
g21
I00
sg109
I01
sg23
I00
sg110
g124
sbsg23
I00
sg24
g629
sg26
I55
sg27
g3104
sbsVhcalTopologyIdeal
p3113
g0
(g2859
g2
Ntp3114
Rp3115
(dp3116
g17
VHcalTopologyIdealEP
p3117
sg19
(lp3118
VExclude
p3119
aVMergePosition
p3120
ag1955
asg21
I00
sg22
Nsg3119
g0
(g715
g2
Ntp3121
Rp3122
(dp3123
g21
I00
sg109
I00
sg23
I00
sg110
g124
sbsg23
I00
sg3120
g0
(g184
g2
Ntp3124
Rp3125
(dp3126
g21
I00
sg109
I00
sg23
I00
sg110
I00
sbsg1955
g0
(g715
g2
Ntp3127
Rp3128
(dp3129
g21
I00
sg109
I01
sg23
I00
sg110
g124
sbsg24
g629
sg26
I55
sg27
g3113
sbsVidealForDigiCSCGeometry
p3130
g0
(g2859
g2
Ntp3131
Rp3132
(dp3133
g17
g2858
sg19
(lp3134
g2864
ag2865
ag2866
ag1955
ag2867
ag2868
ag2869
ag2870
ag2871
ag2872
asg21
I00
sg22
Nsg2864
g0
(g184
g2
Ntp3135
Rp3136
(dp3137
g21
I00
sg109
I01
sg23
I00
sg110
I00
sbsg23
I01
sg2865
g0
(g184
g2
Ntp3138
Rp3139
(dp3140
g21
I00
sg109
I01
sg23
I00
sg110
I00
sbsg2866
g0
(g715
g2
Ntp3141
Rp3142
(dp3143
g21
I00
sg109
I01
sg23
I01
sg110
g3093
sbsg1955
g0
(g715
g2
Ntp3144
Rp3145
(dp3146
g21
I00
sg109
I01
sg23
I01
sg110
VidealForDigi
p3147
sbsg2867
g0
(g184
g2
Ntp3148
Rp3149
(dp3150
g21
I00
sg109
I01
sg23
I00
sg110
I01
sbsg2868
g0
(g184
g2
Ntp3151
Rp3152
(dp3153
g21
I00
sg109
I01
sg23
I00
sg110
I00
sbsg2869
g0
(g184
g2
Ntp3154
Rp3155
(dp3156
g21
I00
sg109
I01
sg23
I01
sg110
I00
sbsg2870
g0
(g184
g2
Ntp3157
Rp3158
(dp3159
g21
I00
sg109
I01
sg23
I00
sg110
I00
sbsg2871
g0
(g184
g2
Ntp3160
Rp3161
(dp3162
g21
I00
sg109
I01
sg23
I01
sg110
I00
sbsg2872
g0
(g184
g2
Ntp3163
Rp3164
(dp3165
g21
I00
sg109
I00
sg23
I00
sg110
I00
sbsg24
V/cvmfs/cms-ib.cern.ch/sw/x86_64/week0/el8_amd64_gcc12/cms/cmssw/CMSSW_14_1_X_2024-06-16-0000/src/Geometry/CSCGeometryBuilder/python/idealForDigiCscGeometryDB_cff.py
p3166
sg26
I8
sg27
g3130
sbsVidealForDigiDTGeometry
p3167
g0
(g2859
g2
Ntp3168
Rp3169
(dp3170
g17
g2948
sg19
(lp3171
g2864
ag2865
ag2953
ag2866
ag1955
ag2954
ag2955
ag2871
asg21
I00
sg22
Nsg2864
g0
(g184
g2
Ntp3172
Rp3173
(dp3174
g21
I00
sg109
I01
sg23
I01
sg110
I00
sbsg23
I01
sg2865
g0
(g184
g2
Ntp3175
Rp3176
(dp3177
g21
I00
sg109
I01
sg23
I00
sg110
I00
sbsg2953
g0
(g2962
g2
Ntp3178
Rp3179
(dp3180
g21
I00
sg109
I01
sg23
I00
sg2966
g124
sg2967
g124
sbsg2866
g0
(g715
g2
Ntp3181
Rp3182
(dp3183
g21
I00
sg109
I01
sg23
I01
sg110
g3093
sbsg1955
g0
(g715
g2
Ntp3184
Rp3185
(dp3186
g21
I00
sg109
I01
sg23
I01
sg110
g3147
sbsg2954
g0
(g715
g2
Ntp3187
Rp3188
(dp3189
g21
I00
sg109
I01
sg23
I00
sg110
g2977
sbsg2955
g0
(g715
g2
Ntp3190
Rp3191
(dp3192
g21
I00
sg109
I01
sg23
I00
sg110
g2981
sbsg2871
g0
(g184
g2
Ntp3193
Rp3194
(dp3195
g21
I00
sg109
I01
sg23
I01
sg110
I00
sbsg24
V/cvmfs/cms-ib.cern.ch/sw/x86_64/week0/el8_amd64_gcc12/cms/cmssw/CMSSW_14_1_X_2024-06-16-0000/src/Geometry/DTGeometryBuilder/python/idealForDigiDtGeometryDB_cff.py
p3196
sg26
I8
sg27
g3167
sbsVidealForDigiTrackerGeometry
p3197
g0
(g2859
g2
Ntp3198
Rp3199
(dp3200
g17
VTrackerDigiGeometryESModule
p3201
sg19
(lp3202
g1955
ag2864
ag2871
ag2866
asg21
I00
sg22
Nsg1955
g0
(g715
g2
Ntp3203
Rp3204
(dp3205
g21
I00
sg109
I01
sg23
I01
sg110
g3147
sbsg23
I01
sg2864
g0
(g184
g2
Ntp3206
Rp3207
(dp3208
g21
I00
sg109
I01
sg23
I00
sg110
I00
sbsg2871
g0
(g184
g2
Ntp3209
Rp3210
(dp3211
g21
I00
sg109
I01
sg23
I01
sg110
I00
sbsg2866
g0
(g715
g2
Ntp3212
Rp3213
(dp3214
g21
I00
sg109
I01
sg23
I01
sg110
g3093
sbsg24
V/cvmfs/cms-ib.cern.ch/sw/x86_64/week0/el8_amd64_gcc12/cms/cmssw/CMSSW_14_1_X_2024-06-16-0000/src/Geometry/TrackerGeometryBuilder/python/idealForDigiTrackerGeometryDB_cff.py
p3215
sg26
I8
sg27
g3197
sbsVmuonGeometryConstants
p3216
g0
(g2859
g2
Ntp3217
Rp3218
(dp3219
g17
VMuonGeometryConstantsESModule
p3220
sg19
(lp3221
g2865
ag1955
asg21
I00
sg22
Nsg2865
g0
(g184
g2
Ntp3222
Rp3223
(dp3224
g21
I00
sg109
I01
sg23
I00
sg110
I01
sbsg23
I01
sg1955
g0
(g715
g2
Ntp3225
Rp3226
(dp3227
g21
I00
sg109
I01
sg23
I00
sg110
g124
sbsg24
g629
sg26
I55
sg27
g3216
sbsVtrackerGeometryDB
p3228
g0
(g2859
g2
Ntp3229
Rp3230
(dp3231
g17
g3201
sg19
(lp3232
g1955
ag2864
ag2871
ag2866
asg21
I00
sg22
Nsg1955
g0
(g715
g2
Ntp3233
Rp3234
(dp3235
g21
I00
sg109
I01
sg23
I00
sg110
g124
sbsg23
I00
sg2864
g0
(g184
g2
Ntp3236
Rp3237
(dp3238
g21
I00
sg109
I01
sg23
I00
sg110
I00
sbsg2871
g0
(g184
g2
Ntp3239
Rp3240
(dp3241
g21
I00
sg109
I01
sg23
I00
sg110
I01
sbsg2866
g0
(g715
g2
Ntp3242
Rp3243
(dp3244
g21
I00
sg109
I01
sg23
I00
sg110
g124
sbsg24
g629
sg26
I55
sg27
g3228
sbsVtrackerNumberingGeometryDB
p3245
g0
(g2859
g2
Ntp3246
Rp3247
(dp3248
g17
VTrackerGeometricDetESModule
p3249
sg19
(lp3250
g2864
ag2865
ag1955
asg21
I00
sg22
Nsg2864
g0
(g184
g2
Ntp3251
Rp3252
(dp3253
g21
I00
sg109
I01
sg23
I00
sg110
I00
sbsg23
I00
sg2865
g0
(g184
g2
Ntp3254
Rp3255
(dp3256
g21
I00
sg109
I01
sg23
I00
sg110
I00
sbsg1955
g0
(g715
g2
Ntp3257
Rp3258
(dp3259
g21
I00
sg109
I01
sg23
I00
sg110
g124
sbsg24
g629
sg26
I55
sg27
g3245
sbsVtrackerTopology
p3260
g0
(g2859
g2
Ntp3261
Rp3262
(dp3263
g17
VTrackerTopologyEP
p3264
sg19
(lp3265
g1955
asg21
I00
sg22
Nsg1955
g0
(g715
g2
Ntp3266
Rp3267
(dp3268
g21
I00
sg109
I01
sg23
I00
sg110
g124
sbsg23
I00
sg24
g629
sg26
I55
sg27
g3260
sbsVGEMGeometryESModule
p3269
g0
(g2859
g2
Ntp3270
Rp3271
(dp3272
g17
g3269
sg19
(lp3273
g2864
ag2865
ag1955
ag2866
ag2871
asg21
I00
sg22
Nsg2864
g0
(g184
g2
Ntp3274
Rp3275
(dp3276
g21
I00
sg109
I01
sg23
I00
sg110
I00
sbsg23
I01
sg2865
g0
(g184
g2
Ntp3277
Rp3278
(dp3279
g21
I00
sg109
I01
sg23
I00
sg110
I00
sbsg1955
g0
(g715
g2
Ntp3280
Rp3281
(dp3282
g21
I00
sg109
I01
sg23
I00
sg110
g124
sbsg2866
g0
(g715
g2
Ntp3283
Rp3284
(dp3285
g21
I00
sg109
I01
sg23
I00
sg110
g124
sbsg2871
g0
(g184
g2
Ntp3286
Rp3287
(dp3288
g21
I00
sg109
I01
sg23
I01
sg110
I01
sbsg24
g629
sg26
I55
sg27
g3269
sbsVParabolicParametrizedMagneticFieldProducer
p3289
g0
(g2859
g2
Ntp3290
Rp3291
(dp3292
g17
VAutoParametrizedMagneticFieldProducer
p3293
sg19
(lp3294
Vversion
p3295
aVlabel
p3296
aVvalueOverride
p3297
asg21
I00
sg22
Nsg3295
g0
(g715
g2
Ntp3298
Rp3299
(dp3300
g21
I00
sg109
I01
sg23
I00
sg110
VParabolic
p3301
sbsg23
I01
sg3296
g0
(g715
g2
Ntp3302
Rp3303
(dp3304
g21
I00
sg109
I00
sg23
I01
sg110
VParabolicMf
p3305
sbsg3297
g0
(g305
g2
Ntp3306
Rp3307
(dp3308
g21
I00
sg109
I01
sg23
I00
sg110
I-1
sbsg24
g629
sg26
I55
sg27
g3289
sbsVVolumeBasedMagneticFieldESProducer
p3309
g0
(g2859
g2
Ntp3310
Rp3311
(dp3312
g17
VDD4hep_VolumeBasedMagneticFieldESProducerFromDB
p3313
sg19
(lp3314
g3296
aVdebugBuilder
p3315
ag3297
asg21
I00
sg22
Nsg23
I01
sg24
g629
sg26
I55
sg3296
g0
(g715
g2
Ntp3316
Rp3317
(dp3318
g21
I00
sg109
I00
sg23
I00
sg110
g124
sbsg3315
g0
(g184
g2
Ntp3319
Rp3320
(dp3321
g21
I00
sg109
I00
sg23
I00
sg110
I00
sbsg3297
g0
(g305
g2
Ntp3322
Rp3323
(dp3324
g21
I00
sg109
I01
sg23
I00
sg110
I-1
sbsg27
g3309
sbsVecalSeverityLevel
p3325
g0
(g2859
g2
Ntp3326
Rp3327
(dp3328
g17
VEcalSeverityLevelESProducer
p3329
sg19
(lp3330
VflagMask
p3331
aVdbstatusMask
p3332
aVtimeThresh
p3333
asg21
I00
sg22
Nsg3331
g0
(g1015
g2
Ntp3334
Rp3335
(dp3336
g21
I00
sg109
I01
sg23
I00
sg19
(lp3337
VkGood
p3338
aVkProblematic
p3339
aVkRecovered
p3340
ag327
ag328
ag329
asg22
Nsg3338
g0
(g325
g145
(lp3341
g3338
atp3342
Rp3343
(dp3344
g21
I00
sg109
I01
sg23
I00
sg333
I1
sbsg3339
g0
(g325
g145
(lp3345
VkPoorReco
p3346
aVkPoorCalib
p3347
aVkNoisy
p3348
aVkSaturated
p3349
atp3350
Rp3351
(dp3352
g21
I00
sg109
I01
sg23
I00
sg333
I1
sbsg3340
g0
(g325
g145
(lp3353
VkLeadingEdgeRecovered
p3354
aVkTowerRecovered
p3355
atp3356
Rp3357
(dp3358
g21
I00
sg109
I01
sg23
I00
sg333
I1
sbsg327
g0
(g325
g145
(lp3359
VkOutOfTime
p3360
atp3361
Rp3362
(dp3363
g21
I00
sg109
I01
sg23
I00
sg333
I1
sbsg328
g0
(g325
g145
(lp3364
g328
aVkDiWeird
p3365
atp3366
Rp3367
(dp3368
g21
I00
sg109
I01
sg23
I00
sg333
I1
sbsg329
g0
(g325
g145
(lp3369
VkFaultyHardware
p3370
aVkDead
p3371
aVkKilled
p3372
atp3373
Rp3374
(dp3375
g21
I00
sg109
I01
sg23
I00
sg333
I1
sbsbsg23
I00
sg3332
g0
(g1015
g2
Ntp3376
Rp3377
(dp3378
g21
I00
sg109
I01
sg23
I00
sg19
(lp3379
g3338
ag3339
ag3340
ag327
ag328
ag329
asg22
Nsg3338
g0
(g325
g145
(lp3380
VkOk
p3381
atp3382
Rp3383
(dp3384
g21
I00
sg109
I01
sg23
I00
sg333
I1
sbsg3339
g0
(g325
g145
(lp3385
VkDAC
p3386
aVkNoLaser
p3387
ag3348
aVkNNoisy
p3388
aVkNNNoisy
p3389
aVkNNNNoisy
p3390
aVkNNNNNoisy
p3391
aVkFixedG6
p3392
aVkFixedG1
p3393
aVkFixedG0
p3394
atp3395
Rp3396
(dp3397
g21
I00
sg109
I01
sg23
I00
sg333
I1
sbsg3340
g0
(g325
g145
(lp3398
tp3399
Rp3400
(dp3401
g21
I00
sg109
I01
sg23
I00
sg333
I1
sbsg327
g0
(g325
g145
(lp3402
tp3403
Rp3404
(dp3405
g21
I00
sg109
I01
sg23
I00
sg333
I1
sbsg328
g0
(g325
g145
(lp3406
tp3407
Rp3408
(dp3409
g21
I00
sg109
I01
sg23
I00
sg333
I1
sbsg329
g0
(g325
g145
(lp3410
VkNonRespondingIsolated
p3411
aVkDeadVFE
p3412
aVkDeadFE
p3413
aVkNoDataNoTP
p3414
atp3415
Rp3416
(dp3417
g21
I00
sg109
I01
sg23
I00
sg333
I1
sbsbsg3333
g0
(g105
g2
Ntp3418
Rp3419
(dp3420
g21
I00
sg109
I01
sg23
I00
sg110
F2.0
sbsg24
g629
sg26
I55
sg27
g3325
sbsVCastorDbProducer
p3421
g0
(g2859
g2
Ntp3422
Rp3423
(dp3424
g17
g3421
sg19
(lp3425
g1955
asg21
I00
sg22
Nsg1955
g0
(g715
g2
Ntp3426
Rp3427
(dp3428
g21
I00
sg109
I01
sg23
I00
sg110
g124
sbsg23
I00
sg24
g629
sg26
I55
sg27
g3421
sbsVEcalLaserCorrectionService
p3429
g0
(g2859
g2
Ntp3430
Rp3431
(dp3432
g17
g3429
sg19
(lp3433
VmaxExtrapolationTimeInSec
p3434
asg21
I00
sg22
Nsg3434
g0
(g321
g2
Ntp3435
Rp3436
(dp3437
g21
I00
sg109
I01
sg23
I00
sg110
I0
sbsg23
I00
sg24
g629
sg26
I55
sg27
g3429
sbsVEcalLaserCorrectionServiceMC
p3438
g0
(g2859
g2
Ntp3439
Rp3440
(dp3441
g17
g3438
sg19
(lp3442
g1955
asg21
I00
sg22
Nsg1955
g0
(g715
g2
Ntp3443
Rp3444
(dp3445
g21
I00
sg109
I01
sg23
I00
sg110
g124
sbsg23
I00
sg24
g629
sg26
I55
sg27
g3438
sbsVSiStripRecHitMatcherESProducer
p3446
g0
(g2859
g2
Ntp3447
Rp3448
(dp3449
g17
g3446
sg19
(lp3450
VComponentName
p3451
aVNSigmaInside
p3452
aVPreFilter
p3453
asg21
I00
sg22
Nsg3451
g0
(g715
g2
Ntp3454
Rp3455
(dp3456
g21
I00
sg109
I01
sg23
I00
sg110
VStandardMatcher
p3457
sbsg23
I00
sg3452
g0
(g105
g2
Ntp3458
Rp3459
(dp3460
g21
I00
sg109
I01
sg23
I00
sg110
F3.0
sbsg3453
g0
(g184
g2
Ntp3461
Rp3462
(dp3463
g21
I00
sg109
I01
sg23
I00
sg110
I00
sbsg24
g629
sg26
I55
sg27
g3446
sbsVStripCPEfromTrackAngleESProducer
p3464
g0
(g2859
g2
Ntp3465
Rp3466
(dp3467
g17
VStripCPEESProducer
p3468
sg19
(lp3469
g3451
aVComponentType
p3470
aVparameters
p3471
asg21
I00
sg22
Nsg3451
g0
(g715
g2
Ntp3472
Rp3473
(dp3474
g21
I00
sg109
I01
sg23
I01
sg110
VStripCPEfromTrackAngle
p3475
sbsg23
I00
sg3470
g0
(g715
g2
Ntp3476
Rp3477
(dp3478
g21
I00
sg109
I01
sg23
I01
sg110
g3475
sbsg3471
g0
(g1015
g2
Ntp3479
Rp3480
(dp3481
g21
I00
sg109
I01
sg23
I00
sg19
(lp3482
VmLC_P0
p3483
aVmLC_P1
p3484
aVmLC_P2
p3485
aVmTIB_P0
p3486
aVmTIB_P1
p3487
aVmTOB_P0
p3488
aVmTOB_P1
p3489
aVmTID_P0
p3490
aVmTID_P1
p3491
aVmTEC_P0
p3492
aVmTEC_P1
p3493
aVuseLegacyError
p3494
aVmaxChgOneMIP
p3495
asg22
Nsg3483
g0
(g105
g2
Ntp3496
Rp3497
(dp3498
g21
I00
sg109
I01
sg23
I00
sg110
F-0.326
sbsg3484
g0
(g105
g2
Ntp3499
Rp3500
(dp3501
g21
I00
sg109
I01
sg23
I00
sg110
F0.618
sbsg3485
g0
(g105
g2
Ntp3502
Rp3503
(dp3504
g21
I00
sg109
I01
sg23
I00
sg110
F0.3
sbsg3486
g0
(g105
g2
Ntp3505
Rp3506
(dp3507
g21
I00
sg109
I01
sg23
I00
sg110
F-0.742
sbsg3487
g0
(g105
g2
Ntp3508
Rp3509
(dp3510
g21
I00
sg109
I01
sg23
I00
sg110
F0.202
sbsg3488
g0
(g105
g2
Ntp3511
Rp3512
(dp3513
g21
I00
sg109
I01
sg23
I00
sg110
F-1.026
sbsg3489
g0
(g105
g2
Ntp3514
Rp3515
(dp3516
g21
I00
sg109
I01
sg23
I00
sg110
F0.253
sbsg3490
g0
(g105
g2
Ntp3517
Rp3518
(dp3519
g21
I00
sg109
I01
sg23
I00
sg110
F-1.427
sbsg3491
g0
(g105
g2
Ntp3520
Rp3521
(dp3522
g21
I00
sg109
I01
sg23
I00
sg110
F0.433
sbsg3492
g0
(g105
g2
Ntp3523
Rp3524
(dp3525
g21
I00
sg109
I01
sg23
I00
sg110
F-1.885
sbsg3493
g0
(g105
g2
Ntp3526
Rp3527
(dp3528
g21
I00
sg109
I01
sg23
I00
sg110
F0.471
sbsg3494
g0
(g184
g2
Ntp3529
Rp3530
(dp3531
g21
I00
sg109
I01
sg23
I00
sg110
I00
sbsg3495
g0
(g105
g2
Ntp3532
Rp3533
(dp3534
g21
I00
sg109
I01
sg23
I00
sg110
F6000.0
sbsbsg24
V/cvmfs/cms-ib.cern.ch/sw/x86_64/week0/el8_amd64_gcc12/cms/cmssw/CMSSW_14_1_X_2024-06-16-0000/src/RecoLocalTracker/SiStripRecHitConverter/python/StripCPEfromTrackAngle_cfi.py
p3535
sg26
I4
sg27
g3464
sbsVctppsBeamParametersFromLHCInfoESSource
p3536
g0
(g2859
g2
Ntp3537
Rp3538
(dp3539
g17
VCTPPSBeamParametersFromLHCInfoESSource
p3540
sg19
(lp3541
VlhcInfoLabel
p3542
aVlhcInfoPerLSLabel
p3543
aVlhcInfoPerFillLabel
p3544
aVuseNewLHCInfo
p3545
aVbeamDivX45
p3546
aVbeamDivY45
p3547
aVbeamDivX56
p3548
aVbeamDivY56
p3549
aVvtxOffsetX45
p3550
aVvtxOffsetY45
p3551
aVvtxOffsetZ45
p3552
aVvtxOffsetX56
p3553
aVvtxOffsetY56
p3554
aVvtxOffsetZ56
p3555
aVvtxStddevX
p3556
aVvtxStddevY
p3557
aVvtxStddevZ
p3558
ag1955
asg21
I00
sg22
Nsg3542
g0
(g715
g2
Ntp3559
Rp3560
(dp3561
g21
I00
sg109
I01
sg23
I00
sg110
g124
sbsg23
I01
sg3543
g0
(g715
g2
Ntp3562
Rp3563
(dp3564
g21
I00
sg109
I01
sg23
I00
sg110
g124
sbsg3544
g0
(g715
g2
Ntp3565
Rp3566
(dp3567
g21
I00
sg109
I01
sg23
I00
sg110
g124
sbsg3545
g0
(g184
g2
Ntp3568
Rp3569
(dp3570
g21
I00
sg109
I01
sg23
I01
sg110
I01
sbsg3546
g0
(g105
g2
Ntp3571
Rp3572
(dp3573
g21
I00
sg109
I01
sg23
I00
sg110
F0.1
sbsg3547
g0
(g105
g2
Ntp3574
Rp3575
(dp3576
g21
I00
sg109
I01
sg23
I00
sg110
F0.1
sbsg3548
g0
(g105
g2
Ntp3577
Rp3578
(dp3579
g21
I00
sg109
I01
sg23
I00
sg110
F0.1
sbsg3549
g0
(g105
g2
Ntp3580
Rp3581
(dp3582
g21
I00
sg109
I01
sg23
I00
sg110
F0.1
sbsg3550
g0
(g105
g2
Ntp3583
Rp3584
(dp3585
g21
I00
sg109
I01
sg23
I00
sg110
F0.01
sbsg3551
g0
(g105
g2
Ntp3586
Rp3587
(dp3588
g21
I00
sg109
I01
sg23
I00
sg110
F0.01
sbsg3552
g0
(g105
g2
Ntp3589
Rp3590
(dp3591
g21
I00
sg109
I01
sg23
I00
sg110
F0.01
sbsg3553
g0
(g105
g2
Ntp3592
Rp3593
(dp3594
g21
I00
sg109
I01
sg23
I00
sg110
F0.01
sbsg3554
g0
(g105
g2
Ntp3595
Rp3596
(dp3597
g21
I00
sg109
I01
sg23
I00
sg110
F0.01
sbsg3555
g0
(g105
g2
Ntp3598
Rp3599
(dp3600
g21
I00
sg109
I01
sg23
I00
sg110
F0.01
sbsg3556
g0
(g105
g2
Ntp3601
Rp3602
(dp3603
g21
I00
sg109
I01
sg23
I00
sg110
F0.02
sbsg3557
g0
(g105
g2
Ntp3604
Rp3605
(dp3606
g21
I00
sg109
I01
sg23
I00
sg110
F0.02
sbsg3558
g0
(g105
g2
Ntp3607
Rp3608
(dp3609
g21
I00
sg109
I01
sg23
I00
sg110
F0.02
sbsg1955
g0
(g715
g2
Ntp3610
Rp3611
(dp3612
g21
I00
sg109
I01
sg23
I00
sg110
g124
sbsg24
V/cvmfs/cms-ib.cern.ch/sw/x86_64/week0/el8_amd64_gcc12/cms/cmssw/CMSSW_14_1_X_2024-06-16-0000/src/CalibPPS/ESProducers/python/ctppsBeamParametersFromLHCInfoESSource_cfi.py
p3613
sg26
I2
sg27
g3536
sbsVctppsInterpolatedOpticalFunctionsESSource
p3614
g0
(g2859
g2
Ntp3615
Rp3616
(dp3617
g17
VCTPPSInterpolatedOpticalFunctionsESSource
p3618
sg19
(lp3619
g3542
ag3544
ag3543
aVopticsLabel
p3620
ag3545
ag1955
asg21
I00
sg22
Nsg3542
g0
(g715
g2
Ntp3621
Rp3622
(dp3623
g21
I00
sg109
I01
sg23
I00
sg110
g124
sbsg23
I01
sg3544
g0
(g715
g2
Ntp3624
Rp3625
(dp3626
g21
I00
sg109
I01
sg23
I00
sg110
g124
sbsg3543
g0
(g715
g2
Ntp3627
Rp3628
(dp3629
g21
I00
sg109
I01
sg23
I00
sg110
g124
sbsg3620
g0
(g715
g2
Ntp3630
Rp3631
(dp3632
g21
I00
sg109
I01
sg23
I00
sg110
g124
sbsg3545
g0
(g184
g2
Ntp3633
Rp3634
(dp3635
g21
I00
sg109
I01
sg23
I01
sg110
I01
sbsg1955
g0
(g715
g2
Ntp3636
Rp3637
(dp3638
g21
I00
sg109
I01
sg23
I00
sg110
g124
sbsg24
V/cvmfs/cms-ib.cern.ch/sw/x86_64/week0/el8_amd64_gcc12/cms/cmssw/CMSSW_14_1_X_2024-06-16-0000/src/CalibPPS/ESProducers/python/ctppsInterpolatedOpticalFunctionsESSource_cfi.py
p3639
sg26
I2
sg27
g3614
sbsVhcal_db_producer
p3640
g0
(g2859
g2
Ntp3641
Rp3642
(dp3643
g17
VHcalDbProducer
p3644
sg19
(lp3645
Vdump
p3646
aVfile
p3647
asg21
I00
sg22
Nsg3646
g0
(g325
g145
(lp3648
g124
atp3649
Rp3650
(dp3651
g21
I00
sg109
I00
sg23
I00
sg333
I1
sbsg23
I00
sg3647
g0
(g715
g2
Ntp3652
Rp3653
(dp3654
g21
I00
sg109
I00
sg23
I00
sg110
g124
sbsg24
g629
sg26
I55
sg27
g3640
sbsVmultipleScatteringParametrisationMakerESProducer
p3655
g0
(g2859
g2
Ntp3656
Rp3657
(dp3658
g17
VMultipleScatteringParametrisationMakerESProducer
p3659
sg19
(lp3660
g1955
asg21
I00
sg22
Nsg1955
g0
(g715
g2
Ntp3661
Rp3662
(dp3663
g21
I00
sg109
I01
sg23
I00
sg110
g124
sbsg23
I00
sg24
g629
sg26
I55
sg27
g3655
sbsVsiPixelQualityESProducer
p3664
g0
(g2859
g2
Ntp3665
Rp3666
(dp3667
g17
VSiPixelQualityESProducer
p3668
sg19
(lp3669
VsiPixelQualityFromDbLabel
p3670
aVListOfRecordToMerge
p3671
ag1955
asg21
I00
sg22
Nsg3670
g0
(g715
g2
Ntp3672
Rp3673
(dp3674
g21
I00
sg109
I01
sg23
I00
sg110
g124
sbsg23
I00
sg3671
g0
(g1923
g145
(lp3675
g0
(g1015
g2
Ntp3676
Rp3677
(dp3678
g21
I00
sg109
I01
sg23
I00
sg19
(lp3679
Vrecord
p3680
aVtag
p3681
asg22
Nsg3680
g0
(g715
g2
Ntp3682
Rp3683
(dp3684
g21
I00
sg109
I01
sg23
I00
sg110
VSiPixelQualityFromDbRcd
p3685
sbsg3681
g0
(g715
g2
Ntp3686
Rp3687
(dp3688
g21
I00
sg109
I01
sg23
I00
sg110
g124
sbsbag0
(g1015
g2
Ntp3689
Rp3690
(dp3691
g21
I00
sg109
I01
sg23
I00
sg19
(lp3692
g3680
ag3681
asg22
Nsg3680
g0
(g715
g2
Ntp3693
Rp3694
(dp3695
g21
I00
sg109
I01
sg23
I00
sg110
VSiPixelDetVOffRcd
p3696
sbsg3681
g0
(g715
g2
Ntp3697
Rp3698
(dp3699
g21
I00
sg109
I01
sg23
I00
sg110
g124
sbsbatp3700
Rp3701
(dp3702
g21
I00
sg109
I01
sg23
I00
sg333
I1
sbsg1955
g0
(g715
g2
Ntp3703
Rp3704
(dp3705
g21
I00
sg109
I01
sg23
I00
sg110
g124
sbsg24
g629
sg26
I55
sg27
g3664
sbsVsiStripBackPlaneCorrectionDepESProducer
p3706
g0
(g2859
g2
Ntp3707
Rp3708
(dp3709
g17
VSiStripBackPlaneCorrectionDepESProducer
p3710
sg19
(lp3711
VLatencyRecord
p3712
aVBackPlaneCorrectionPeakMode
p3713
aVBackPlaneCorrectionDeconvMode
p3714
asg21
I00
sg22
Nsg3712
g0
(g1015
g2
Ntp3715
Rp3716
(dp3717
g21
I00
sg109
I01
sg23
I00
sg19
(lp3718
g3680
ag3296
asg22
Nsg3680
g0
(g715
g2
Ntp3719
Rp3720
(dp3721
g21
I00
sg109
I01
sg23
I00
sg110
VSiStripLatencyRcd
p3722
sbsg3296
g0
(g715
g2
Ntp3723
Rp3724
(dp3725
g21
I00
sg109
I00
sg23
I00
sg110
g124
sbsbsg23
I00
sg3713
g0
(g1015
g2
Ntp3726
Rp3727
(dp3728
g21
I00
sg109
I01
sg23
I00
sg19
(lp3729
g3680
ag3296
asg22
Nsg3680
g0
(g715
g2
Ntp3730
Rp3731
(dp3732
g21
I00
sg109
I01
sg23
I00
sg110
VSiStripBackPlaneCorrectionRcd
p3733
sbsg3296
g0
(g715
g2
Ntp3734
Rp3735
(dp3736
g21
I00
sg109
I00
sg23
I00
sg110
Vpeak
p3737
sbsbsg3714
g0
(g1015
g2
Ntp3738
Rp3739
(dp3740
g21
I00
sg109
I01
sg23
I00
sg19
(lp3741
g3680
ag3296
asg22
Nsg3680
g0
(g715
g2
Ntp3742
Rp3743
(dp3744
g21
I00
sg109
I01
sg23
I00
sg110
g3733
sbsg3296
g0
(g715
g2
Ntp3745
Rp3746
(dp3747
g21
I00
sg109
I00
sg23
I00
sg110
Vdeconvolution
p3748
sbsbsg24
g629
sg26
I55
sg27
g3706
sbsVsiStripGainESProducer
p3749
g0
(g2859
g2
Ntp3750
Rp3751
(dp3752
g17
VSiStripGainESProducer
p3753
sg19
(lp3754
g1955
aVprintDebug
p3755
aVAutomaticNormalization
p3756
aVAPVGain
p3757
asg21
I00
sg22
Nsg1955
g0
(g715
g2
Ntp3758
Rp3759
(dp3760
g21
I00
sg109
I01
sg23
I00
sg110
g124
sbsg23
I00
sg3755
g0
(g184
g2
Ntp3761
Rp3762
(dp3763
g21
I00
sg109
I00
sg23
I00
sg110
I00
sbsg3756
g0
(g184
g2
Ntp3764
Rp3765
(dp3766
g21
I00
sg109
I01
sg23
I00
sg110
I00
sbsg3757
g0
(g1923
g145
(lp3767
g0
(g1015
g2
Ntp3768
Rp3769
(dp3770
g21
I00
sg109
I01
sg23
I00
sg19
(lp3771
VRecord
p3772
aVLabel
p3773
aVNormalizationFactor
p3774
asg22
Nsg3772
g0
(g715
g2
Ntp3775
Rp3776
(dp3777
g21
I00
sg109
I01
sg23
I00
sg110
VSiStripApvGainRcd
p3778
sbsg3773
g0
(g715
g2
Ntp3779
Rp3780
(dp3781
g21
I00
sg109
I00
sg23
I00
sg110
g124
sbsg3774
g0
(g105
g2
Ntp3782
Rp3783
(dp3784
g21
I00
sg109
I00
sg23
I00
sg110
F1.0
sbsbag0
(g1015
g2
Ntp3785
Rp3786
(dp3787
g21
I00
sg109
I01
sg23
I00
sg19
(lp3788
g3772
ag3773
ag3774
asg22
Nsg3772
g0
(g715
g2
Ntp3789
Rp3790
(dp3791
g21
I00
sg109
I01
sg23
I00
sg110
VSiStripApvGain2Rcd
p3792
sbsg3773
g0
(g715
g2
Ntp3793
Rp3794
(dp3795
g21
I00
sg109
I00
sg23
I00
sg110
g124
sbsg3774
g0
(g105
g2
Ntp3796
Rp3797
(dp3798
g21
I00
sg109
I00
sg23
I00
sg110
F1.0
sbsbatp3799
Rp3800
(dp3801
g21
I00
sg109
I01
sg23
I00
sg333
I1
sbsg24
g629
sg26
I55
sg27
g3749
sbsVsiStripLorentzAngleDepESProducer
p3802
g0
(g2859
g2
Ntp3803
Rp3804
(dp3805
g17
VSiStripLorentzAngleDepESProducer
p3806
sg19
(lp3807
g3712
aVLorentzAnglePeakMode
p3808
aVLorentzAngleDeconvMode
p3809
asg21
I00
sg22
Nsg3712
g0
(g1015
g2
Ntp3810
Rp3811
(dp3812
g21
I00
sg109
I01
sg23
I00
sg19
(lp3813
g3680
ag3296
asg22
Nsg3680
g0
(g715
g2
Ntp3814
Rp3815
(dp3816
g21
I00
sg109
I01
sg23
I00
sg110
g3722
sbsg3296
g0
(g715
g2
Ntp3817
Rp3818
(dp3819
g21
I00
sg109
I00
sg23
I00
sg110
g124
sbsbsg23
I00
sg3808
g0
(g1015
g2
Ntp3820
Rp3821
(dp3822
g21
I00
sg109
I01
sg23
I00
sg19
(lp3823
g3680
ag3296
asg22
Nsg3680
g0
(g715
g2
Ntp3824
Rp3825
(dp3826
g21
I00
sg109
I01
sg23
I00
sg110
VSiStripLorentzAngleRcd
p3827
sbsg3296
g0
(g715
g2
Ntp3828
Rp3829
(dp3830
g21
I00
sg109
I00
sg23
I00
sg110
g3737
sbsbsg3809
g0
(g1015
g2
Ntp3831
Rp3832
(dp3833
g21
I00
sg109
I01
sg23
I00
sg19
(lp3834
g3680
ag3296
asg22
Nsg3680
g0
(g715
g2
Ntp3835
Rp3836
(dp3837
g21
I00
sg109
I01
sg23
I00
sg110
g3827
sbsg3296
g0
(g715
g2
Ntp3838
Rp3839
(dp3840
g21
I00
sg109
I00
sg23
I00
sg110
g3748
sbsbsg24
g629
sg26
I55
sg27
g3802
sbsVsiStripQualityESProducer
p3841
g0
(g2859
g2
Ntp3842
Rp3843
(dp3844
g17
VSiStripQualityESProducer
p3845
sg19
(lp3846
g1955
ag3671
aVReduceGranularity
p3847
aVThresholdForReducedGranularity
p3848
aVPrintDebugOutput
p3849
aVUseEmptyRunInfo
p3850
asg21
I00
sg22
Nsg1955
g0
(g715
g2
Ntp3851
Rp3852
(dp3853
g21
I00
sg109
I01
sg23
I00
sg110
g124
sbsg23
I01
sg3671
g0
(g1923
g145
(lp3854
g0
(g1015
g2
Ntp3855
Rp3856
(dp3857
g21
I00
sg109
I01
sg23
I00
sg19
(lp3858
g3680
ag3681
asg22
Nsg3680
g0
(g715
g2
Ntp3859
Rp3860
(dp3861
g21
I00
sg109
I01
sg23
I00
sg110
VSiStripDetVOffRcd
p3862
sbsg3681
g0
(g715
g2
Ntp3863
Rp3864
(dp3865
g21
I00
sg109
I01
sg23
I00
sg110
g124
sbsbag0
(g1015
g2
Ntp3866
Rp3867
(dp3868
g21
I00
sg109
I01
sg23
I00
sg19
(lp3869
g3680
ag3681
asg22
Nsg3680
g0
(g715
g2
Ntp3870
Rp3871
(dp3872
g21
I00
sg109
I01
sg23
I00
sg110
VSiStripDetCablingRcd
p3873
sbsg3681
g0
(g715
g2
Ntp3874
Rp3875
(dp3876
g21
I00
sg109
I01
sg23
I00
sg110
g124
sbsbag0
(g1015
g2
Ntp3877
Rp3878
(dp3879
g21
I00
sg109
I01
sg23
I00
sg19
(lp3880
g3680
ag3681
asg22
Nsg3680
g0
(g715
g2
Ntp3881
Rp3882
(dp3883
g21
I00
sg109
I01
sg23
I00
sg110
VRunInfoRcd
p3884
sbsg3681
g0
(g715
g2
Ntp3885
Rp3886
(dp3887
g21
I00
sg109
I01
sg23
I00
sg110
g124
sbsbag0
(g1015
g2
Ntp3888
Rp3889
(dp3890
g21
I00
sg109
I01
sg23
I00
sg19
(lp3891
g3680
ag3681
asg22
Nsg3680
g0
(g715
g2
Ntp3892
Rp3893
(dp3894
g21
I00
sg109
I01
sg23
I00
sg110
VSiStripBadChannelRcd
p3895
sbsg3681
g0
(g715
g2
Ntp3896
Rp3897
(dp3898
g21
I00
sg109
I01
sg23
I00
sg110
g124
sbsbag0
(g1015
g2
Ntp3899
Rp3900
(dp3901
g21
I00
sg109
I01
sg23
I00
sg19
(lp3902
g3680
ag3681
asg22
Nsg3680
g0
(g715
g2
Ntp3903
Rp3904
(dp3905
g21
I00
sg109
I01
sg23
I00
sg110
VSiStripBadFiberRcd
p3906
sbsg3681
g0
(g715
g2
Ntp3907
Rp3908
(dp3909
g21
I00
sg109
I01
sg23
I00
sg110
g124
sbsbag0
(g1015
g2
Ntp3910
Rp3911
(dp3912
g21
I00
sg109
I01
sg23
I00
sg19
(lp3913
g3680
ag3681
asg22
Nsg3680
g0
(g715
g2
Ntp3914
Rp3915
(dp3916
g21
I00
sg109
I01
sg23
I00
sg110
VSiStripBadModuleRcd
p3917
sbsg3681
g0
(g715
g2
Ntp3918
Rp3919
(dp3920
g21
I00
sg109
I01
sg23
I00
sg110
g124
sbsbag0
(g1015
g2
Ntp3921
Rp3922
(dp3923
g21
I00
sg109
I01
sg23
I00
sg19
(lp3924
g3680
ag3681
asg22
Nsg3680
g0
(g715
g2
Ntp3925
Rp3926
(dp3927
g21
I00
sg109
I01
sg23
I00
sg110
VSiStripBadStripRcd
p3928
sbsg3681
g0
(g715
g2
Ntp3929
Rp3930
(dp3931
g21
I00
sg109
I01
sg23
I00
sg110
g124
sbsbatp3932
Rp3933
(dp3934
g21
I00
sg109
I01
sg23
I00
sg333
I1
sbsg3847
g0
(g184
g2
Ntp3935
Rp3936
(dp3937
g21
I00
sg109
I01
sg23
I00
sg110
I00
sbsg3848
g0
(g105
g2
Ntp3938
Rp3939
(dp3940
g21
I00
sg109
I01
sg23
I00
sg110
F0.3
sbsg3849
g0
(g184
g2
Ntp3941
Rp3942
(dp3943
g21
I00
sg109
I01
sg23
I00
sg110
I00
sbsg3850
g0
(g184
g2
Ntp3944
Rp3945
(dp3946
g21
I00
sg109
I01
sg23
I00
sg110
I00
sbsg24
g629
sg26
I55
sg27
g3841
sbsVsistripconn
p3947
g0
(g2859
g2
Ntp3948
Rp3949
(dp3950
g17
VSiStripConnectivity
p3951
sg19
(lp3952
sg21
I00
sg22
Nsg23
I00
sg24
g629
sg26
I55
sg27
g3947
sbsVstripCPEESProducer
p3953
g0
(g2859
g2
Ntp3954
Rp3955
(dp3956
g17
g3468
sg19
(lp3957
g3451
ag3470
ag3471
asg21
I00
sg22
Nsg3451
g0
(g715
g2
Ntp3958
Rp3959
(dp3960
g21
I00
sg109
I01
sg23
I00
sg110
VstripCPE
p3961
sbsg23
I00
sg3470
g0
(g715
g2
Ntp3962
Rp3963
(dp3964
g21
I00
sg109
I01
sg23
I00
sg110
VSimpleStripCPE
p3965
sbsg3471
g0
(g1015
g2
Ntp3966
Rp3967
(dp3968
g21
I00
sg109
I01
sg23
I00
sg19
(lp3969
sg22
Nsbsg24
g629
sg26
I55
sg27
g3953
sbssV_Process__esprefers
p3970
(dp3971
Ves_prefer_hcalHardcode
p3972
g0
(cFWCore.ParameterSet.Modules
ESPrefer
p3973
g2
Ntp3974
Rp3975
(dp3976
g17
g2124
sg19
(lp3977
sg21
I00
sg22
Nsg23
I00
sg24
g629
sg26
I91
sV_targetLabel
p3978
g2120
sg27
g3972
sbssV_Process__aliases
p3979
(dp3980
sV_Process__psets
p3981
(dp3982
VmaxLuminosityBlocks
p3983
g0
(g1015
g2
Ntp3984
Rp3985
(dp3986
g21
I00
sg109
I00
sg23
I00
sg19
(lp3987
Vinput
p3988
asg22
Nsg3988
g0
(g305
g2
Ntp3989
Rp3990
(dp3991
g21
I00
sg109
I00
sg23
I00
sg110
I-1
sbsg27
g3983
sbsVnanoDQMIO_perLSoutput
p3992
g0
(g1015
g2
Ntp3993
Rp3994
(dp3995
g21
I00
sg109
I01
sg23
I00
sg19
(lp3996
g1271
asg22
Nsg1271
g0
(g325
g145
(lp3997
g1283
ag1284
ag1285
ag1286
ag1287
ag1288
ag1289
ag1290
ag1291
ag1292
ag1293
ag1294
ag1295
ag1296
ag1297
ag1298
ag1299
ag1300
ag1301
ag1302
ag1303
ag1304
ag1305
ag1306
ag1307
ag1308
ag1309
ag1310
ag1311
ag1312
ag1313
ag1314
ag1315
ag1316
ag1317
ag1318
ag1319
ag1320
ag1321
ag1322
ag1323
ag1324
ag1325
ag1326
ag1327
ag1328
ag1329
ag1330
ag1331
ag1332
ag1333
ag1334
ag1335
ag1336
ag1337
ag1338
ag1339
ag1340
ag1341
ag1342
ag1343
ag1344
ag1345
ag1346
ag1347
ag1348
ag1349
ag1350
ag1351
ag1352
ag1353
ag1354
ag1355
ag1356
ag1357
ag1358
ag1359
ag1360
ag1361
ag1362
ag1363
ag1364
ag1365
ag1366
ag1367
ag1368
ag1369
ag1370
ag1371
ag1372
ag1373
ag1374
ag1375
ag1376
ag1377
ag1378
ag1379
ag1380
ag1381
ag1382
ag1383
ag1384
ag1385
ag1386
ag1387
ag1388
ag1389
ag1390
ag1391
ag1392
ag1393
ag1394
ag1395
ag1396
ag1397
ag1398
ag1399
ag1400
ag1401
ag1402
ag1403
ag1404
ag1405
ag1406
ag1407
ag1408
ag1409
ag1410
ag1411
ag1412
ag1413
ag1414
ag1415
ag1416
ag1417
ag1418
ag1419
ag1420
ag1421
ag1422
ag1423
ag1424
ag1425
ag1426
ag1427
ag1428
ag1429
ag1430
ag1431
ag1432
ag1433
ag1434
ag1435
ag1436
ag1437
ag1438
ag1439
ag1440
ag1441
ag1442
ag1443
ag1444
ag1445
ag1446
ag1447
ag1448
ag1449
ag1450
ag1451
ag1452
ag1453
ag1454
ag1455
ag1456
ag1457
ag1458
ag1459
ag1460
ag1461
ag1462
ag1463
ag1464
ag1465
ag1466
ag1467
ag1468
ag1469
ag1470
ag1471
ag1472
ag1473
ag1474
ag1475
ag1476
ag1477
ag1478
ag1479
ag1480
ag1481
ag1482
ag1483
ag1484
ag1485
ag1486
ag1487
ag1488
ag1489
ag1490
ag1491
ag1492
ag1493
ag1494
ag1495
ag1496
ag1497
ag1498
ag1499
ag1500
ag1501
ag1502
ag1503
ag1504
ag1505
ag1506
ag1507
ag1508
atp3998
Rp3999
(dp4000
g21
I00
sg109
I00
sg23
I00
sg333
I1
sbsg27
g3992
sbsVCondDB
p4001
g0
(g1015
g2
Ntp4002
Rp4003
(dp4004
g21
I00
sg109
I01
sg23
I00
sg19
(lp4005
g1876
ag1877
asg22
Nsg1876
g0
(g1015
g2
Ntp4006
Rp4007
(dp4008
g21
I00
sg109
I01
sg23
I00
sg19
(lp4009
g1892
ag1893
ag1894
ag1895
ag1896
asg22
Nsg1892
g0
(g715
g2
Ntp4010
Rp4011
(dp4012
g21
I00
sg109
I00
sg23
I00
sg110
g124
sbsg1893
g0
(g305
g2
Ntp4013
Rp4014
(dp4015
g21
I00
sg109
I00
sg23
I00
sg110
I0
sbsg1894
g0
(g715
g2
Ntp4016
Rp4017
(dp4018
g21
I00
sg109
I00
sg23
I00
sg110
g124
sbsg1895
g0
(g305
g2
Ntp4019
Rp4020
(dp4021
g21
I00
sg109
I00
sg23
I00
sg110
I0
sbsg1896
g0
(g305
g2
Ntp4022
Rp4023
(dp4024
g21
I00
sg109
I00
sg23
I00
sg110
I0
sbsbsg1877
g0
(g715
g2
Ntp4025
Rp4026
(dp4027
g21
I00
sg109
I01
sg23
I00
sg110
g124
sbsg27
g4001
sbsg2134
g2185
sVoptions
p4028
g0
(g1015
g2
Ntp4029
Rp4030
(dp4031
g21
I00
sg109
I00
sg23
I01
sg19
(lp4032
VnumberOfThreads
p4033
aVnumberOfStreams
p4034
aVnumberOfConcurrentRuns
p4035
aVnumberOfConcurrentLuminosityBlocks
p4036
aVeventSetup
p4037
aVaccelerators
p4038
aVwantSummary
p4039
aVfileMode
p4040
aVforceEventSetupCacheClearOnNewRun
p4041
aVthrowIfIllegalParameter
p4042
aVprintDependencies
p4043
aVdeleteNonConsumedUnscheduledModules
p4044
aVsizeOfStackForThreadsInKB
p4045
aVRethrow
p4046
aVTryToContinue
p4047
aVIgnoreCompletely
p4048
aVmodulesToCallForTryToContinue
p4049
aVcanDeleteEarly
p4050
aVholdsReferencesToDeleteEarly
p4051
aVmodulesToIgnoreForDeleteEarly
p4052
aVdumpOptions
p4053
aVallowUnscheduled
p4054
aVemptyRunLumiMode
p4055
aVmakeTriggerResults
p4056
asg22
Nsg4033
g0
(g321
g2
Ntp4057
Rp4058
(dp4059
g21
I00
sg109
I00
sg23
I00
sg110
I1
sbsg4034
g0
(g321
g2
Ntp4060
Rp4061
(dp4062
g21
I00
sg109
I00
sg23
I00
sg110
I0
sbsg4035
g0
(g321
g2
Ntp4063
Rp4064
(dp4065
g21
I00
sg109
I00
sg23
I00
sg110
I1
sbsg4036
g0
(g321
g2
Ntp4066
Rp4067
(dp4068
g21
I00
sg109
I00
sg23
I00
sg110
I0
sbsg4037
g0
(g1015
g2
Ntp4069
Rp4070
(dp4071
g21
I00
sg109
I00
sg23
I00
sg19
(lp4072
VnumberOfConcurrentIOVs
p4073
aVforceNumberOfConcurrentIOVs
p4074
asg22
Nsg4073
g0
(g321
g2
Ntp4075
Rp4076
(dp4077
g21
I00
sg109
I00
sg23
I00
sg110
I0
sbsg4074
g0
(g1015
g2
Ntp4078
Rp4079
(dp4080
g21
I00
sg109
I00
sg23
I00
sg19
(lp4081
sg22
g0
(cFWCore.ParameterSet.Types
_RequiredParameter
p4082
g2
Ntp4083
Rp4084
(dp4085
g21
I00
sg109
I00
sg23
I00
sg935
g321
sg936
Nsbsbsbsg4038
g0
(g325
g145
(lp4086
V*
p4087
atp4088
Rp4089
(dp4090
g21
I00
sg109
I00
sg23
I00
sg333
I1
sbsg4039
g0
(g184
g2
Ntp4091
Rp4092
(dp4093
g21
I00
sg109
I00
sg23
I00
sg110
I01
sbsg4040
g0
(g715
g2
Ntp4094
Rp4095
(dp4096
g21
I00
sg109
I00
sg23
I00
sg110
VFULLMERGE
p4097
sbsg4041
g0
(g184
g2
Ntp4098
Rp4099
(dp4100
g21
I00
sg109
I00
sg23
I00
sg110
I00
sbsg4042
g0
(g184
g2
Ntp4101
Rp4102
(dp4103
g21
I00
sg109
I00
sg23
I00
sg110
I01
sbsg4043
g0
(g184
g2
Ntp4104
Rp4105
(dp4106
g21
I00
sg109
I00
sg23
I00
sg110
I00
sbsg4044
g0
(g184
g2
Ntp4107
Rp4108
(dp4109
g21
I00
sg109
I00
sg23
I00
sg110
I01
sbsg4045
g0
(g931
g2
Ntp4110
Rp4111
(dp4112
g21
I00
sg109
I00
sg23
I00
sg935
g321
sg936
Nsbsg4046
g0
(g325
g145
(lp4113
tp4114
Rp4115
(dp4116
g21
I00
sg109
I00
sg23
I00
sg333
I1
sbsg4047
g0
(g325
g145
(lp4117
tp4118
Rp4119
(dp4120
g21
I00
sg109
I00
sg23
I00
sg333
I1
sbsg4048
g0
(g325
g145
(lp4121
tp4122
Rp4123
(dp4124
g21
I00
sg109
I00
sg23
I00
sg333
I1
sbsg4049
g0
(g325
g145
(lp4125
tp4126
Rp4127
(dp4128
g21
I00
sg109
I00
sg23
I00
sg333
I1
sbsg4050
g0
(g325
g145
(lp4129
tp4130
Rp4131
(dp4132
g21
I00
sg109
I00
sg23
I00
sg333
I1
sbsg4051
g0
(g1923
g145
(lp4133
tp4134
Rp4135
(dp4136
g21
I00
sg109
I00
sg23
I00
sg333
I1
sbsg4052
g0
(g325
g145
(lp4137
tp4138
Rp4139
(dp4140
g21
I00
sg109
I00
sg23
I00
sg333
I1
sbsg4053
g0
(g184
g2
Ntp4141
Rp4142
(dp4143
g21
I00
sg109
I00
sg23
I00
sg110
I00
sbsg4054
g0
(cFWCore.ParameterSet.Types
_ObsoleteParameter
p4144
g2
Ntp4145
Rp4146
(dp4147
g21
I00
sg109
I00
sg23
I00
sg935
g184
sg936
Nsbsg4055
g0
(g4144
g2
Ntp4148
Rp4149
(dp4150
g21
I00
sg109
I00
sg23
I00
sg935
g715
sg936
Nsbsg4056
g0
(g4144
g2
Ntp4151
Rp4152
(dp4153
g21
I00
sg109
I00
sg23
I00
sg935
g184
sg936
Nsbsg27
g4028
sbsVmaxEvents
p4154
g0
(g1015
g2
Ntp4155
Rp4156
(dp4157
g21
I00
sg109
I00
sg23
I01
sg19
(lp4158
g3988
ag1206
asg22
Nsg3988
g0
(g931
g2
Ntp4159
Rp4160
(dp4161
g21
I00
sg109
I00
sg23
I00
sg935
g305
sg936
g0
(g305
g2
Ntp4162
Rp4163
(dp4164
g21
I00
sg109
I00
sg23
I00
sg110
I-1
sbsbsg1206
g0
(g931
g2
Ntp4165
Rp4166
(dp4167
g21
I00
sg109
I00
sg23
I00
sg935
g0
(cFWCore.ParameterSet.Types
_AllowedParameterTypes
p4168
g2
Ntp4169
Rp4170
(dp4171
V_AllowedParameterTypes__types
p4172
(g305
g1015
tp4173
sV_default
p4174
NsV__name__
p4175
Vallowed(cms.int32,cms.PSet)
p4176
sbsg936
Nsbsg27
g4154
sbssV_Process__vpsets
p4177
(dp4178
sV_cloneToObjectDict
p4179
(dp4180
L140543415722192L
g0
(g1015
g2
Ntp4181
Rp4182
(dp4183
g21
I00
sg109
I00
sg23
I00
sg19
(lp4184
g4033
ag4034
ag4035
ag4036
ag4037
ag4038
ag4039
ag4040
ag4041
ag4042
ag4043
ag4044
ag4045
ag4046
ag4047
ag4048
ag4049
ag4050
ag4051
ag4052
ag4053
ag4054
ag4055
ag4056
asg22
Nsg4033
g0
(g321
g2
Ntp4185
Rp4186
(dp4187
g21
I00
sg109
I00
sg23
I00
sg110
I1
sbsg4034
g0
(g321
g2
Ntp4188
Rp4189
(dp4190
g21
I00
sg109
I00
sg23
I00
sg110
I0
sbsg4035
g0
(g321
g2
Ntp4191
Rp4192
(dp4193
g21
I00
sg109
I00
sg23
I00
sg110
I1
sbsg4036
g0
(g321
g2
Ntp4194
Rp4195
(dp4196
g21
I00
sg109
I00
sg23
I00
sg110
I0
sbsg4037
g0
(g1015
g2
Ntp4197
Rp4198
(dp4199
g21
I00
sg109
I00
sg23
I00
sg19
(lp4200
g4073
ag4074
asg22
Nsg4073
g0
(g321
g2
Ntp4201
Rp4202
(dp4203
g21
I00
sg109
I00
sg23
I00
sg110
I0
sbsg4074
g0
(g1015
g2
Ntp4204
Rp4205
(dp4206
g21
I00
sg109
I00
sg23
I00
sg19
(lp4207
sg22
g0
(g4082
g2
Ntp4208
Rp4209
(dp4210
g21
I00
sg109
I00
sg23
I00
sg935
g321
sg936
Nsbsbsbsg4038
g0
(g325
g145
(lp4211
g4087
atp4212
Rp4213
(dp4214
g21
I00
sg109
I00
sg23
I00
sg333
I1
sbsg4039
g0
(g184
g2
Ntp4215
Rp4216
(dp4217
g21
I00
sg109
I00
sg23
I00
sg110
I00
sbsg4040
g0
(g715
g2
Ntp4218
Rp4219
(dp4220
g21
I00
sg109
I00
sg23
I00
sg110
g4097
sbsg4041
g0
(g184
g2
Ntp4221
Rp4222
(dp4223
g21
I00
sg109
I00
sg23
I00
sg110
I00
sbsg4042
g0
(g184
g2
Ntp4224
Rp4225
(dp4226
g21
I00
sg109
I00
sg23
I00
sg110
I01
sbsg4043
g0
(g184
g2
Ntp4227
Rp4228
(dp4229
g21
I00
sg109
I00
sg23
I00
sg110
I00
sbsg4044
g0
(g184
g2
Ntp4230
Rp4231
(dp4232
g21
I00
sg109
I00
sg23
I00
sg110
I01
sbsg4045
g0
(g931
g2
Ntp4233
Rp4234
(dp4235
g21
I00
sg109
I00
sg23
I00
sg935
g321
sg936
Nsbsg4046
g0
(g325
g145
(lp4236
tp4237
Rp4238
(dp4239
g21
I00
sg109
I00
sg23
I00
sg333
I1
sbsg4047
g0
(g325
g145
(lp4240
tp4241
Rp4242
(dp4243
g21
I00
sg109
I00
sg23
I00
sg333
I1
sbsg4048
g0
(g325
g145
(lp4244
tp4245
Rp4246
(dp4247
g21
I00
sg109
I00
sg23
I00
sg333
I1
sbsg4049
g0
(g325
g145
(lp4248
tp4249
Rp4250
(dp4251
g21
I00
sg109
I00
sg23
I00
sg333
I1
sbsg4050
g0
(g325
g145
(lp4252
tp4253
Rp4254
(dp4255
g21
I00
sg109
I00
sg23
I00
sg333
I1
sbsg4051
g0
(g1923
g145
(lp4256
tp4257
Rp4258
(dp4259
g21
I00
sg109
I00
sg23
I00
sg333
I1
sbsg4052
g0
(g325
g145
(lp4260
tp4261
Rp4262
(dp4263
g21
I00
sg109
I00
sg23
I00
sg333
I1
sbsg4053
g0
(g184
g2
Ntp4264
Rp4265
(dp4266
g21
I00
sg109
I00
sg23
I00
sg110
I00
sbsg4054
g0
(g4144
g2
Ntp4267
Rp4268
(dp4269
g21
I00
sg109
I00
sg23
I00
sg935
g184
sg936
Nsbsg4055
g0
(g4144
g2
Ntp4270
Rp4271
(dp4272
g21
I00
sg109
I00
sg23
I00
sg935
g715
sg936
Nsbsg4056
g0
(g4144
g2
Ntp4273
Rp4274
(dp4275
g21
I00
sg109
I00
sg23
I00
sg935
g184
sg936
Nsbsg27
NsbsL140543415722432L
g0
(g1015
g2
Ntp4276
Rp4277
(dp4278
g21
I00
sg109
I00
sg23
I00
sg19
(lp4279
g3988
ag1206
asg22
Nsg3988
g0
(g931
g2
Ntp4280
Rp4281
(dp4282
g21
I00
sg109
I00
sg23
I00
sg935
g305
sg936
Nsbsg1206
g0
(g931
g2
Ntp4283
Rp4284
(dp4285
g21
I00
sg109
I00
sg23
I00
sg935
g0
(g4168
g2
Ntp4286
Rp4287
(dp4288
g4172
(g305
g1015
tp4289
sg4174
Nsg4175
Vallowed(cms.int32,cms.PSet)
p4290
sbsg936
Nsbsg27
NsbsL140543415722480L
g3985
sL140543417956624L
g1821
sL140543415318464L
g3994
sL140543415317408L
g15
sL140543417947664L
g2861
sL140543429032496L
g2905
sL140543429033168L
g2921
sL140543417253648L
g2926
sL140543419302192L
g2934
sL140543416187104L
g2942
sL140543417949440L
g2950
sL140543417251392L
g2987
sL140543429032784L
g2995
sL140543417252640L
g3000
sL140543417252352L
g3008
sL140543417253360L
g3016
sL140543419777184L
g3026
sL140543417253696L
g3031
sL140543429032592L
g3036
sL140543419779440L
g3044
sL140543417947904L
g3049
sL140543419777424L
g3060
sL140543415435664L
g3069
sL140543416187680L
g3078
sL140543416187872L
g1833
sL140543417421056L
g3086
sL140543417421488L
g3097
sL140543417418944L
g3106
sL140543417250768L
g3115
sL140543416188208L
g3132
sL140543417420288L
g3169
sL140543416188016L
g3199
sL140543429029952L
g3218
sL140543419777136L
g3230
sL140543419777280L
g3247
sL140543419779104L
g3262
sL140543416149424L
g3271
sL140543417255824L
g3291
sL140543417255680L
g3311
sL140543417256448L
g3327
sL140543417254384L
g1855
sL140543413122336L
g3423
sL140543416958160L
g4003
sL140543417033920L
g3431
sL140543417034640L
g3440
sL140543417036320L
g1872
sL140543413121472L
g2185
sL140543413104112L
g1952
sL140543413252784L
g3448
sL140543413243664L
g3466
sL140543413280528L
g3538
sL140543413280480L
g3616
sL140543413166032L
g2122
sL140543413170240L
g3975
sL140543417035888L
g3642
sL140543413278896L
g3657
sL140543413254752L
g3666
sL140543413277360L
g0
(g2859
g2
Ntp4291
Rp4292
(dp4293
g17
g3668
sg19
(lp4294
g3670
ag3671
ag1955
asg21
I00
sg22
Nsg3670
g0
(g715
g2
Ntp4295
Rp4296
(dp4297
g21
I00
sg109
I01
sg23
I01
sg110
VforRawToDigi
p4298
sbsg23
I00
sg3671
g0
(g1923
g145
(lp4299
g0
(g1015
g2
Ntp4300
Rp4301
(dp4302
g21
I00
sg109
I01
sg23
I00
sg19
(lp4303
g3680
ag3681
asg22
Nsg3680
g0
(g715
g2
Ntp4304
Rp4305
(dp4306
g21
I00
sg109
I01
sg23
I00
sg110
g3685
sbsg3681
g0
(g715
g2
Ntp4307
Rp4308
(dp4309
g21
I00
sg109
I01
sg23
I00
sg110
g124
sbsbag0
(g1015
g2
Ntp4310
Rp4311
(dp4312
g21
I00
sg109
I01
sg23
I00
sg19
(lp4313
g3680
ag3681
asg22
Nsg3680
g0
(g715
g2
Ntp4314
Rp4315
(dp4316
g21
I00
sg109
I01
sg23
I00
sg110
g3696
sbsg3681
g0
(g715
g2
Ntp4317
Rp4318
(dp4319
g21
I00
sg109
I01
sg23
I00
sg110
g124
sbsbatp4320
Rp4321
(dp4322
g21
I00
sg109
I01
sg23
I00
sg333
I1
sbsg1955
g0
(g715
g2
Ntp4323
Rp4324
(dp4325
g21
I00
sg109
I01
sg23
I01
sg110
g4298
sbsg24
V/cvmfs/cms-ib.cern.ch/sw/x86_64/week0/el8_amd64_gcc12/cms/cmssw/CMSSW_14_1_X_2024-06-16-0000/src/CalibTracker/SiPixelESProducers/python/siPixelQualityForRawToDigiESProducer_cfi.py
p4326
sg26
I5
sg27
NsbsL140543413241120L
g3708
sL140543413173840L
g3751
sL140543413240208L
g3804
sL140543413255184L
g3843
sL140543413122384L
g3949
sL140543413242608L
g3955
sL140543412880048L
g4030
sL140543413008320L
g30
sL140543418609472L
g371
sL140543412632160L
g639
sL140543412608544L
g4156
sL140543412964608L
g947
ssV_Process__InExtendCall
p4327
I00
sV_Process__partialschedules
p4328
(dp4329
sV_Process__isStrict
p4330
I00
sV_Process__modifiers
p4331
(g0
(cFWCore.ParameterSet.Config
ModifierChain
p4332
g2
Ntp4333
Rp4334
(dp4335
V_ModifierChain__chosen
p4336
I01
sV_ModifierChain__chain
p4337
(g0
(g4332
g2
Ntp4338
Rp4339
(dp4340
g4336
I01
sg4337
(g0
(g4332
g2
Ntp4341
Rp4342
(dp4343
g4336
I01
sg4337
(g0
(g4332
g2
Ntp4344
Rp4345
(dp4346
g4336
I01
sg4337
(g0
(cFWCore.ParameterSet.Config
Modifier
p4347
g2
Ntp4348
Rp4349
(dp4350
V_Modifier__processModifiers
p4351
(lp4352
sV_Modifier__chosen
p4353
I01
sbg0
(g4347
g2
Ntp4354
Rp4355
(dp4356
g4351
(lp4357
sg4353
I01
sbg0
(g4347
g2
Ntp4358
Rp4359
(dp4360
g4351
(lp4361
sg4353
I01
sbg0
(g4347
g2
Ntp4362
Rp4363
(dp4364
g4351
(lp4365
sg4353
I01
sbg0
(g4347
g2
Ntp4366
Rp4367
(dp4368
g4351
(lp4369
sg4353
I01
sbtp4370
sbg0
(g4347
g2
Ntp4371
Rp4372
(dp4373
g4351
(lp4374
sg4353
I01
sbg0
(g4347
g2
Ntp4375
Rp4376
(dp4377
g4351
(lp4378
sg4353
I01
sbg0
(g4347
g2
Ntp4379
Rp4380
(dp4381
g4351
(lp4382
sg4353
I01
sbg0
(g4347
g2
Ntp4383
Rp4384
(dp4385
g4351
(lp4386
sg4353
I01
sbg0
(g4347
g2
Ntp4387
Rp4388
(dp4389
g4351
(lp4390
sg4353
I01
sbg0
(g4347
g2
Ntp4391
Rp4392
(dp4393
g4351
(lp4394
sg4353
I01
sbg0
(g4347
g2
Ntp4395
Rp4396
(dp4397
g4351
(lp4398
sg4353
I01
sbg0
(g4332
g2
Ntp4399
Rp4400
(dp4401
g4336
I01
sg4337
(g0
(g4347
g2
Ntp4402
Rp4403
(dp4404
g4351
(lp4405
sg4353
I01
sbg0
(g4347
g2
Ntp4406
Rp4407
(dp4408
g4351
(lp4409
sg4353
I01
sbg0
(g4347
g2
Ntp4410
Rp4411
(dp4412
g4351
(lp4413
sg4353
I01
sbg0
(g4347
g2
Ntp4414
Rp4415
(dp4416
g4351
(lp4417
sg4353
I01
sbg0
(g4347
g2
Ntp4418
Rp4419
(dp4420
g4351
(lp4421
sg4353
I01
sbg0
(g4347
g2
Ntp4422
Rp4423
(dp4424
g4351
(lp4425
sg4353
I01
sbg0
(g4347
g2
Ntp4426
Rp4427
(dp4428
g4351
(lp4429
sg4353
I01
sbtp4430
sbg0
(g4347
g2
Ntp4431
Rp4432
(dp4433
g4351
(lp4434
sg4353
I01
sbg0
(g4347
g2
Ntp4435
Rp4436
(dp4437
g4351
(lp4438
sg4353
I01
sbg0
(g4347
g2
Ntp4439
Rp4440
(dp4441
g4351
(lp4442
sg4353
I01
sbg0
(g4347
g2
Ntp4443
Rp4444
(dp4445
g4351
(lp4446
sg4353
I01
sbtp4447
sbg0
(g4347
g2
Ntp4448
Rp4449
(dp4450
g4351
(lp4451
sg4353
I01
sbg0
(g4347
g2
Ntp4452
Rp4453
(dp4454
g4351
(lp4455
sg4353
I01
sbg0
(g4347
g2
Ntp4456
Rp4457
(dp4458
g4351
(lp4459
sg4353
I01
sbg0
(g4347
g2
Ntp4460
Rp4461
(dp4462
g4351
(lp4463
sg4353
I01
sbg0
(g4347
g2
Ntp4464
Rp4465
(dp4466
g4351
(lp4467
sg4353
I01
sbg0
(g4347
g2
Ntp4468
Rp4469
(dp4470
g4351
(lp4471
sg4353
I01
sbg0
(g4347
g2
Ntp4472
Rp4473
(dp4474
g4351
(lp4475
sg4353
I01
sbg0
(g4347
g2
Ntp4476
Rp4477
(dp4478
g4351
(lp4479
sg4353
I01
sbtp4480
sbg0
(g4347
g2
Ntp4481
Rp4482
(dp4483
g4351
(lp4484
sg4353
I01
sbg0
(g4347
g2
Ntp4485
Rp4486
(dp4487
g4351
(lp4488
sg4353
I01
sbg0
(g4347
g2
Ntp4489
Rp4490
(dp4491
g4351
(lp4492
sg4353
I01
sbg0
(g4347
g2
Ntp4493
Rp4494
(dp4495
g4351
(lp4496
sg4353
I01
sbg0
(g4347
g2
Ntp4497
Rp4498
(dp4499
g4351
(lp4500
sg4353
I01
sbg0
(g4347
g2
Ntp4501
Rp4502
(dp4503
g4351
(lp4504
sg4353
I01
sbg0
(g4347
g2
Ntp4505
Rp4506
(dp4507
g4351
(lp4508
sg4353
I01
sbg0
(g4347
g2
Ntp4509
Rp4510
(dp4511
g4351
(lp4512
sg4353
I01
sbg0
(g4347
g2
Ntp4513
Rp4514
(dp4515
g4351
(lp4516
sg4353
I01
sbg0
(g4347
g2
Ntp4517
Rp4518
(dp4519
g4351
(lp4520
sg4353
I01
sbg0
(g4347
g2
Ntp4521
Rp4522
(dp4523
g4351
(lp4524
sg4353
I01
sbg0
(g4347
g2
Ntp4525
Rp4526
(dp4527
g4351
(lp4528
sg4353
I01
sbtp4529
sbtp4530
sV_Process__accelerators
p4531
(dp4532
sg3983
g3985
sg990
g993
sg1264
g1266
sg1818
g1821
sg1524
g1526
sg3992
g3994
sg12
g15
sg2858
g2861
sg2903
g2905
sg2919
g2921
sg2924
g2926
sg2932
g2934
sg2940
g2942
sg2948
g2950
sg2985
g2987
sg2993
g2995
sg2998
g3000
sg3006
g3008
sg3014
g3016
sg3024
g3026
sg3029
g3031
sg3034
g3036
sg3042
g3044
sg3047
g3049
sg3058
g3060
sg3067
g3069
sg3076
g3078
sg1831
g1833
sg3084
g3086
sg3095
g3097
sg3104
g3106
sg3113
g3115
sg3130
g3132
sg3167
g3169
sg3197
g3199
sg3216
g3218
sg3228
g3230
sg3245
g3247
sg3260
g3262
sg3269
g3271
sg3289
g3291
sg3309
g3311
sg3325
g3327
sg1853
g1855
sg3421
g3423
sg4001
g4003
sg3429
g3431
sg3438
g3440
sg1870
g1872
sg2134
g2185
sg1950
g1952
sg3446
g3448
sg3464
g3466
sg3536
g3538
sg3614
g3616
sg2120
g2122
sg3972
g3975
sg3640
g3642
sg3655
g3657
sg3664
g3666
sg3706
g3708
sg3749
g3751
sg3802
g3804
sg3841
g3843
sg3947
g3949
sg3953
g3955
sg4028
g4030
sg28
g30
sg369
g371
sg636
g639
sVsource
p4533
g619
sg621
g619
sg4154
g4156
sg1806
g1808
sg944
g947
sb.