(dp0
VServer
p1
Vcmsweb.cern.ch
p2
sVPort
p3
V
p4
sVRequestName
p5
V240624_155221:smagedov_crab_IsoTrk_2024C_Comissioning_v2
p6
sVvoRole
p7
VNULL
p8
sVvoGroup
p9
g4
sVinstance
p10
Vprod
p11
sVOriginalConfig
p12
ccopy_reg
_reconstructor
p13
(cWMCore.Configuration
Configuration
p14
c__builtin__
object
p15
Ntp16
Rp17
(dp18
V_internal_sections
p19
(lp20
VGeneral
p21
aVJobType
p22
aVData
p23
aVSite
p24
aVUser
p25
aVDebug
p26
asg21
g13
(cWMCore.Configuration
ConfigSection
p27
g15
Ntp28
Rp29
(dp30
V_internal_documentation
p31
g4
sV_internal_name
p32
g21
sV_internal_settings
p33
c__builtin__
set
p34
((lp35
VrequestName
p36
aVworkArea
p37
aVtransferLogs
p38
aVtransferOutputs
p39
atp40
Rp41
sV_internal_docstrings
p42
(dp43
sV_internal_children
p44
g34
((lp45
tp46
Rp47
sV_internal_parent_ref
p48
NsV_internal_skipChecks
p49
I00
sg36
VIsoTrk_2024C_Comissioning_v2
p50
sg38
I01
sg39
I01
sg37
VCRAB3_IsoTrkCalib_Comissioning_2024C_v2
p51
sbsg22
g13
(g27
g15
Ntp52
Rp53
(dp54
g31
g4
sg32
g22
sg33
g34
((lp55
VpluginName
p56
aVpsetName
p57
aVallowUndistributedCMSSW
p58
aVmaxMemoryMB
p59
atp60
Rp61
sg42
(dp62
sg44
g34
((lp63
tp64
Rp65
sg48
Nsg49
I00
sg59
I4000
sg56
VAnalysis
p66
sg57
VisoTrackAlCaCommissioning_cfg.py
p67
sg58
I01
sbsg23
g13
(g27
g15
Ntp68
Rp69
(dp70
g31
g4
sg32
g23
sg33
g34
((lp71
Vpublication
p72
aVunitsPerJob
p73
aVoutLFNDirBase
p74
aVsplitting
p75
aVinputDataset
p76
atp77
Rp78
sg42
(dp79
sg44
g34
((lp80
tp81
Rp82
sg48
Nsg49
I00
sg76
V/Commissioning/Run2024C-HcalCalIsoTrk-PromptReco-v1/ALCARECO
p83
sg75
VFileBased
p84
sg73
I1
sg72
I00
sg74
V/store/user/smagedov/
p85
sbsg24
g13
(g27
g15
Ntp86
Rp87
(dp88
g31
g4
sg32
g24
sg33
g34
((lp89
VstorageSite
p90
atp91
Rp92
sg42
(dp93
sg44
g34
((lp94
tp95
Rp96
sg48
Nsg49
I00
sg90
VT3_US_FNALLPC
p97
sbsg25
g13
(g27
g15
Ntp98
Rp99
(dp100
g31
g4
sg32
g25
sg33
g34
((lp101
tp102
Rp103
sg42
(dp104
sg44
g34
((lp105
tp106
Rp107
sg48
Nsg49
I00
sbsg26
g13
(g27
g15
Ntp108
Rp109
(dp110
g31
g4
sg32
g26
sg33
g34
((lp111
tp112
Rp113
sg42
(dp114
sg44
g34
((lp115
tp116
Rp117
sg48
Nsg49
I00
sbsbs.